
mem_set.o:     file format elf32-littlearm


Disassembly of section .init:

00010158 <_init>:
   10158:	e92d4008 	push	{r3, lr}
   1015c:	eb0000c9 	bl	10488 <call_weak_fn>
   10160:	e8bd8008 	pop	{r3, pc}

Disassembly of section .text:

00010170 <backtrace_and_maps>:
   10170:	e3500001 	cmp	r0, #1
   10174:	d3a01000 	movle	r1, #0
   10178:	c2011001 	andgt	r1, r1, #1
   1017c:	e3510000 	cmp	r1, #0
   10180:	012fff1e 	bxeq	lr
   10184:	e92d47f0 	push	{r4, r5, r6, r7, r8, r9, sl, lr}
   10188:	e24ddc05 	sub	sp, sp, #1280	; 0x500
   1018c:	e1a0000d 	mov	r0, sp
   10190:	e3a01040 	mov	r1, #64	; 0x40
   10194:	e1a04002 	mov	r4, r2
   10198:	eb006779 	bl	29f84 <__backtrace>
   1019c:	e3500002 	cmp	r0, #2
   101a0:	e1a05000 	mov	r5, r0
   101a4:	da000051 	ble	102f0 <backtrace_and_maps+0x180>
   101a8:	e1a00004 	mov	r0, r4
   101ac:	e59f1144 	ldr	r1, [pc, #324]	; 102f8 <backtrace_and_maps+0x188>
   101b0:	e3a0201d 	mov	r2, #29
   101b4:	e3a07004 	mov	r7, #4
   101b8:	ef000000 	svc	0x00000000
   101bc:	e3700a01 	cmn	r0, #4096	; 0x1000
   101c0:	e1a03000 	mov	r3, r0
   101c4:	9a000004 	bls	101dc <backtrace_and_maps+0x6c>
   101c8:	eb000330 	bl	10e90 <__aeabi_read_tp>
   101cc:	e59f2128 	ldr	r2, [pc, #296]	; 102fc <backtrace_and_maps+0x18c>
   101d0:	e2633000 	rsb	r3, r3, #0
   101d4:	e79f2002 	ldr	r2, [pc, r2]
   101d8:	e7803002 	str	r3, [r0, r2]
   101dc:	e2451001 	sub	r1, r5, #1
   101e0:	e28d0004 	add	r0, sp, #4
   101e4:	e1a02004 	mov	r2, r4
   101e8:	eb006781 	bl	29ff4 <__backtrace_symbols_fd>
   101ec:	e3a07004 	mov	r7, #4
   101f0:	e1a00004 	mov	r0, r4
   101f4:	e59f1104 	ldr	r1, [pc, #260]	; 10300 <backtrace_and_maps+0x190>
   101f8:	e3a0201d 	mov	r2, #29
   101fc:	ef000000 	svc	0x00000000
   10200:	e3700a01 	cmn	r0, #4096	; 0x1000
   10204:	e1a03000 	mov	r3, r0
   10208:	9a000004 	bls	10220 <backtrace_and_maps+0xb0>
   1020c:	eb00031f 	bl	10e90 <__aeabi_read_tp>
   10210:	e59f20ec 	ldr	r2, [pc, #236]	; 10304 <backtrace_and_maps+0x194>
   10214:	e2633000 	rsb	r3, r3, #0
   10218:	e79f2002 	ldr	r2, [pc, r2]
   1021c:	e7803002 	str	r3, [r0, r2]
   10220:	e59f00e0 	ldr	r0, [pc, #224]	; 10308 <backtrace_and_maps+0x198>
   10224:	e3a01000 	mov	r1, #0
   10228:	e3a07005 	mov	r7, #5
   1022c:	ef000000 	svc	0x00000000
   10230:	e3700a01 	cmn	r0, #4096	; 0x1000
   10234:	e1a05000 	mov	r5, r0
   10238:	9a000005 	bls	10254 <backtrace_and_maps+0xe4>
   1023c:	eb000313 	bl	10e90 <__aeabi_read_tp>
   10240:	e2652000 	rsb	r2, r5, #0
   10244:	e3e05000 	mvn	r5, #0
   10248:	e59f30bc 	ldr	r3, [pc, #188]	; 1030c <backtrace_and_maps+0x19c>
   1024c:	e79f3003 	ldr	r3, [pc, r3]
   10250:	e7802003 	str	r2, [r0, r3]
   10254:	e3a0ab01 	mov	sl, #1024	; 0x400
   10258:	e3a09003 	mov	r9, #3
   1025c:	e3a08004 	mov	r8, #4
   10260:	e3e06000 	mvn	r6, #0
   10264:	e1a00005 	mov	r0, r5
   10268:	e28d1c01 	add	r1, sp, #256	; 0x100
   1026c:	e1a0200a 	mov	r2, sl
   10270:	e1a07009 	mov	r7, r9
   10274:	ef000000 	svc	0x00000000
   10278:	e3700a01 	cmn	r0, #4096	; 0x1000
   1027c:	e1a03000 	mov	r3, r0
   10280:	9a000008 	bls	102a8 <backtrace_and_maps+0x138>
   10284:	eb000301 	bl	10e90 <__aeabi_read_tp>
   10288:	e59f2080 	ldr	r2, [pc, #128]	; 10310 <backtrace_and_maps+0x1a0>
   1028c:	e2633000 	rsb	r3, r3, #0
   10290:	e79f2002 	ldr	r2, [pc, r2]
   10294:	e7803002 	str	r3, [r0, r2]
   10298:	e1a00005 	mov	r0, r5
   1029c:	e3a07006 	mov	r7, #6
   102a0:	ef000000 	svc	0x00000000
   102a4:	ea000011 	b	102f0 <backtrace_and_maps+0x180>
   102a8:	e3500000 	cmp	r0, #0
   102ac:	dafffff9 	ble	10298 <backtrace_and_maps+0x128>
   102b0:	e1a00004 	mov	r0, r4
   102b4:	e1a02003 	mov	r2, r3
   102b8:	e1a07008 	mov	r7, r8
   102bc:	ef000000 	svc	0x00000000
   102c0:	e3700a01 	cmn	r0, #4096	; 0x1000
   102c4:	e1a02000 	mov	r2, r0
   102c8:	9a000005 	bls	102e4 <backtrace_and_maps+0x174>
   102cc:	eb0002ef 	bl	10e90 <__aeabi_read_tp>
   102d0:	e262c000 	rsb	ip, r2, #0
   102d4:	e1a02006 	mov	r2, r6
   102d8:	e59f1034 	ldr	r1, [pc, #52]	; 10314 <backtrace_and_maps+0x1a4>
   102dc:	e79f1001 	ldr	r1, [pc, r1]
   102e0:	e780c001 	str	ip, [r0, r1]
   102e4:	e1530002 	cmp	r3, r2
   102e8:	0affffdd 	beq	10264 <backtrace_and_maps+0xf4>
   102ec:	eaffffe9 	b	10298 <backtrace_and_maps+0x128>
   102f0:	e28ddc05 	add	sp, sp, #1280	; 0x500
   102f4:	e8bd87f0 	pop	{r4, r5, r6, r7, r8, r9, sl, pc}
   102f8:	00071ae0 	.word	0x00071ae0
   102fc:	00086e64 	.word	0x00086e64
   10300:	00071b00 	.word	0x00071b00
   10304:	00086e20 	.word	0x00086e20
   10308:	00071b20 	.word	0x00071b20
   1030c:	00086dec 	.word	0x00086dec
   10310:	00086da8 	.word	0x00086da8
   10314:	00086d5c 	.word	0x00086d5c

00010318 <detach_arena.part.2>:
   10318:	e92d4010 	push	{r4, lr}
   1031c:	e59f300c 	ldr	r3, [pc, #12]	; 10330 <detach_arena.part.2+0x18>
   10320:	e59f200c 	ldr	r2, [pc, #12]	; 10334 <detach_arena.part.2+0x1c>
   10324:	e59f100c 	ldr	r1, [pc, #12]	; 10338 <detach_arena.part.2+0x20>
   10328:	e59f000c 	ldr	r0, [pc, #12]	; 1033c <detach_arena.part.2+0x24>
   1032c:	eb0038ce 	bl	1e66c <__malloc_assert>
   10330:	00072b48 	.word	0x00072b48
   10334:	000002fb 	.word	0x000002fb
   10338:	00071d50 	.word	0x00071d50
   1033c:	00071e00 	.word	0x00071e00

00010340 <read_int>:
   10340:	e92d4030 	push	{r4, r5, lr}
   10344:	e3e01000 	mvn	r1, #0
   10348:	e3a0e00a 	mov	lr, #10
   1034c:	e3e0c102 	mvn	ip, #-2147483648	; 0x80000000
   10350:	e5903000 	ldr	r3, [r0]
   10354:	e59f4054 	ldr	r4, [pc, #84]	; 103b0 <read_int+0x70>
   10358:	e5d33000 	ldrb	r3, [r3]
   1035c:	e2433030 	sub	r3, r3, #48	; 0x30
   10360:	e5902000 	ldr	r2, [r0]
   10364:	e2825001 	add	r5, r2, #1
   10368:	e5805000 	str	r5, [r0]
   1036c:	e5d22001 	ldrb	r2, [r2, #1]
   10370:	e2422030 	sub	r2, r2, #48	; 0x30
   10374:	e3520009 	cmp	r2, #9
   10378:	8a00000a 	bhi	103a8 <read_int+0x68>
   1037c:	e3530000 	cmp	r3, #0
   10380:	bafffff6 	blt	10360 <read_int+0x20>
   10384:	e1530004 	cmp	r3, r4
   10388:	e04c5002 	sub	r5, ip, r2
   1038c:	ca000003 	bgt	103a0 <read_int+0x60>
   10390:	e003039e 	mul	r3, lr, r3
   10394:	e1530005 	cmp	r3, r5
   10398:	d0823003 	addle	r3, r2, r3
   1039c:	daffffef 	ble	10360 <read_int+0x20>
   103a0:	e1a03001 	mov	r3, r1
   103a4:	eaffffed 	b	10360 <read_int+0x20>
   103a8:	e1a00003 	mov	r0, r3
   103ac:	e8bd8030 	pop	{r4, r5, pc}
   103b0:	0ccccccc 	.word	0x0ccccccc

000103b4 <read_int>:
   103b4:	e92d4070 	push	{r4, r5, r6, lr}
   103b8:	e3e0c000 	mvn	ip, #0
   103bc:	e3a0400a 	mov	r4, #10
   103c0:	e3e0e102 	mvn	lr, #-2147483648	; 0x80000000
   103c4:	e5901000 	ldr	r1, [r0]
   103c8:	e59f504c 	ldr	r5, [pc, #76]	; 1041c <read_int+0x68>
   103cc:	e5913000 	ldr	r3, [r1]
   103d0:	e2433030 	sub	r3, r3, #48	; 0x30
   103d4:	e5b12004 	ldr	r2, [r1, #4]!
   103d8:	e2422030 	sub	r2, r2, #48	; 0x30
   103dc:	e3520009 	cmp	r2, #9
   103e0:	8a00000a 	bhi	10410 <read_int+0x5c>
   103e4:	e3530000 	cmp	r3, #0
   103e8:	bafffff9 	blt	103d4 <read_int+0x20>
   103ec:	e1530005 	cmp	r3, r5
   103f0:	e04e6002 	sub	r6, lr, r2
   103f4:	ca000003 	bgt	10408 <read_int+0x54>
   103f8:	e0030394 	mul	r3, r4, r3
   103fc:	e1530006 	cmp	r3, r6
   10400:	d0823003 	addle	r3, r2, r3
   10404:	dafffff2 	ble	103d4 <read_int+0x20>
   10408:	e1a0300c 	mov	r3, ip
   1040c:	eafffff0 	b	103d4 <read_int+0x20>
   10410:	e5801000 	str	r1, [r0]
   10414:	e1a00003 	mov	r0, r3
   10418:	e8bd8070 	pop	{r4, r5, r6, pc}
   1041c:	0ccccccc 	.word	0x0ccccccc

00010420 <oom>:
   10420:	e3a00002 	mov	r0, #2
   10424:	e92d4010 	push	{r4, lr}
   10428:	e59f1008 	ldr	r1, [pc, #8]	; 10438 <oom+0x18>
   1042c:	eb01192f 	bl	568f0 <_dl_dprintf>
   10430:	e3a0007f 	mov	r0, #127	; 0x7f
   10434:	eb005b3e 	bl	27134 <_exit>
   10438:	00082484 	.word	0x00082484

0001043c <fini>:
   1043c:	e59f3004 	ldr	r3, [pc, #4]	; 10448 <fini+0xc>
   10440:	e5930014 	ldr	r0, [r3, #20]
   10444:	ea013079 	b	5c630 <check_free.isra.0>
   10448:	00098b90 	.word	0x00098b90

0001044c <_start>:
   1044c:	e3a0b000 	mov	fp, #0
   10450:	e3a0e000 	mov	lr, #0
   10454:	e49d1004 	pop	{r1}		; (ldr r1, [sp], #4)
   10458:	e1a0200d 	mov	r2, sp
   1045c:	e52d2004 	push	{r2}		; (str r2, [sp, #-4]!)
   10460:	e52d0004 	push	{r0}		; (str r0, [sp, #-4]!)
   10464:	e59fc010 	ldr	ip, [pc, #16]	; 1047c <_start+0x30>
   10468:	e52dc004 	push	{ip}		; (str ip, [sp, #-4]!)
   1046c:	e59f000c 	ldr	r0, [pc, #12]	; 10480 <_start+0x34>
   10470:	e59f300c 	ldr	r3, [pc, #12]	; 10484 <_start+0x38>
   10474:	eb000076 	bl	10654 <__libc_start_main>
   10478:	eb00158a 	bl	15aa8 <abort>
   1047c:	00010e44 	.word	0x00010e44
   10480:	000105b4 	.word	0x000105b4
   10484:	00010da8 	.word	0x00010da8

00010488 <call_weak_fn>:
   10488:	e59f3014 	ldr	r3, [pc, #20]	; 104a4 <call_weak_fn+0x1c>
   1048c:	e59f2014 	ldr	r2, [pc, #20]	; 104a8 <call_weak_fn+0x20>
   10490:	e08f3003 	add	r3, pc, r3
   10494:	e7932002 	ldr	r2, [r3, r2]
   10498:	e3520000 	cmp	r2, #0
   1049c:	012fff1e 	bxeq	lr
   104a0:	e1a00000 	nop			; (mov r0, r0)
   104a4:	00086b68 	.word	0x00086b68
   104a8:	00000074 	.word	0x00000074

000104ac <deregister_tm_clones>:
   104ac:	e59f301c 	ldr	r3, [pc, #28]	; 104d0 <deregister_tm_clones+0x24>
   104b0:	e59f001c 	ldr	r0, [pc, #28]	; 104d4 <deregister_tm_clones+0x28>
   104b4:	e0433000 	sub	r3, r3, r0
   104b8:	e3530006 	cmp	r3, #6
   104bc:	912fff1e 	bxls	lr
   104c0:	e59f3010 	ldr	r3, [pc, #16]	; 104d8 <deregister_tm_clones+0x2c>
   104c4:	e3530000 	cmp	r3, #0
   104c8:	012fff1e 	bxeq	lr
   104cc:	e12fff13 	bx	r3
   104d0:	00097ed3 	.word	0x00097ed3
   104d4:	00097ed0 	.word	0x00097ed0
   104d8:	00000000 	.word	0x00000000

000104dc <register_tm_clones>:
   104dc:	e59f1024 	ldr	r1, [pc, #36]	; 10508 <register_tm_clones+0x2c>
   104e0:	e59f0024 	ldr	r0, [pc, #36]	; 1050c <register_tm_clones+0x30>
   104e4:	e0411000 	sub	r1, r1, r0
   104e8:	e1a01141 	asr	r1, r1, #2
   104ec:	e0811fa1 	add	r1, r1, r1, lsr #31
   104f0:	e1b010c1 	asrs	r1, r1, #1
   104f4:	012fff1e 	bxeq	lr
   104f8:	e59f3010 	ldr	r3, [pc, #16]	; 10510 <register_tm_clones+0x34>
   104fc:	e3530000 	cmp	r3, #0
   10500:	012fff1e 	bxeq	lr
   10504:	e12fff13 	bx	r3
   10508:	00097ed0 	.word	0x00097ed0
   1050c:	00097ed0 	.word	0x00097ed0
   10510:	00000000 	.word	0x00000000

00010514 <__do_global_dtors_aux>:
   10514:	e92d4010 	push	{r4, lr}
   10518:	e59f402c 	ldr	r4, [pc, #44]	; 1054c <__do_global_dtors_aux+0x38>
   1051c:	e5d43000 	ldrb	r3, [r4]
   10520:	e3530000 	cmp	r3, #0
   10524:	18bd8010 	popne	{r4, pc}
   10528:	ebffffdf 	bl	104ac <deregister_tm_clones>
   1052c:	e59f301c 	ldr	r3, [pc, #28]	; 10550 <__do_global_dtors_aux+0x3c>
   10530:	e3530000 	cmp	r3, #0
   10534:	0a000001 	beq	10540 <__do_global_dtors_aux+0x2c>
   10538:	e59f0014 	ldr	r0, [pc, #20]	; 10554 <__do_global_dtors_aux+0x40>
   1053c:	e1a00000 	nop			; (mov r0, r0)
   10540:	e3a03001 	mov	r3, #1
   10544:	e5c43000 	strb	r3, [r4]
   10548:	e8bd8010 	pop	{r4, pc}
   1054c:	00097ed0 	.word	0x00097ed0
   10550:	00000000 	.word	0x00000000
   10554:	000866c8 	.word	0x000866c8

00010558 <frame_dummy>:
   10558:	e59f3040 	ldr	r3, [pc, #64]	; 105a0 <frame_dummy+0x48>
   1055c:	e92d4010 	push	{r4, lr}
   10560:	e3530000 	cmp	r3, #0
   10564:	0a000002 	beq	10574 <frame_dummy+0x1c>
   10568:	e59f1034 	ldr	r1, [pc, #52]	; 105a4 <frame_dummy+0x4c>
   1056c:	e59f0034 	ldr	r0, [pc, #52]	; 105a8 <frame_dummy+0x50>
   10570:	e1a00000 	nop			; (mov r0, r0)
   10574:	e59f0030 	ldr	r0, [pc, #48]	; 105ac <frame_dummy+0x54>
   10578:	e5903000 	ldr	r3, [r0]
   1057c:	e3530000 	cmp	r3, #0
   10580:	1a000001 	bne	1058c <frame_dummy+0x34>
   10584:	e8bd4010 	pop	{r4, lr}
   10588:	eaffffd3 	b	104dc <register_tm_clones>
   1058c:	e59f301c 	ldr	r3, [pc, #28]	; 105b0 <frame_dummy+0x58>
   10590:	e3530000 	cmp	r3, #0
   10594:	0afffffa 	beq	10584 <frame_dummy+0x2c>
   10598:	e12fff33 	blx	r3
   1059c:	eafffff8 	b	10584 <frame_dummy+0x2c>
   105a0:	00000000 	.word	0x00000000
   105a4:	00097ed4 	.word	0x00097ed4
   105a8:	000866c8 	.word	0x000866c8
   105ac:	00096f88 	.word	0x00096f88
   105b0:	00000000 	.word	0x00000000

000105b4 <main>:
   105b4:	e92d4800 	push	{fp, lr}
   105b8:	e28db004 	add	fp, sp, #4
   105bc:	e24ddb01 	sub	sp, sp, #1024	; 0x400
   105c0:	e24dd008 	sub	sp, sp, #8
   105c4:	e59f307c 	ldr	r3, [pc, #124]	; 10648 <main+0x94>
   105c8:	e5933000 	ldr	r3, [r3]
   105cc:	e50b3008 	str	r3, [fp, #-8]
   105d0:	e59f0074 	ldr	r0, [pc, #116]	; 1064c <main+0x98>
   105d4:	eb001c18 	bl	1763c <_IO_puts>
   105d8:	e3a03000 	mov	r3, #0
   105dc:	e50b340c 	str	r3, [fp, #-1036]	; 0xfffffbf4
   105e0:	ea000009 	b	1060c <main+0x58>
   105e4:	e24b3b01 	sub	r3, fp, #1024	; 0x400
   105e8:	e2433004 	sub	r3, r3, #4
   105ec:	e2433004 	sub	r3, r3, #4
   105f0:	e51b240c 	ldr	r2, [fp, #-1036]	; 0xfffffbf4
   105f4:	e0833002 	add	r3, r3, r2
   105f8:	e3e02000 	mvn	r2, #0
   105fc:	e5c32000 	strb	r2, [r3]
   10600:	e51b340c 	ldr	r3, [fp, #-1036]	; 0xfffffbf4
   10604:	e2833001 	add	r3, r3, #1
   10608:	e50b340c 	str	r3, [fp, #-1036]	; 0xfffffbf4
   1060c:	e51b340c 	ldr	r3, [fp, #-1036]	; 0xfffffbf4
   10610:	e3530b01 	cmp	r3, #1024	; 0x400
   10614:	bafffff2 	blt	105e4 <main+0x30>
   10618:	e59f0030 	ldr	r0, [pc, #48]	; 10650 <main+0x9c>
   1061c:	eb001c06 	bl	1763c <_IO_puts>
   10620:	e3a03000 	mov	r3, #0
   10624:	e1a00003 	mov	r0, r3
   10628:	e59f3018 	ldr	r3, [pc, #24]	; 10648 <main+0x94>
   1062c:	e51b2008 	ldr	r2, [fp, #-8]
   10630:	e5933000 	ldr	r3, [r3]
   10634:	e1520003 	cmp	r2, r3
   10638:	0a000000 	beq	10640 <main+0x8c>
   1063c:	eb006702 	bl	2a24c <__stack_chk_fail>
   10640:	e24bd004 	sub	sp, fp, #4
   10644:	e8bd8800 	pop	{fp, pc}
   10648:	00096f8c 	.word	0x00096f8c
   1064c:	0007154c 	.word	0x0007154c
   10650:	00071554 	.word	0x00071554

00010654 <__libc_start_main>:
   10654:	e59fc310 	ldr	ip, [pc, #784]	; 1096c <__libc_start_main+0x318>
   10658:	e92d41f0 	push	{r4, r5, r6, r7, r8, lr}
   1065c:	e35c0000 	cmp	ip, #0
   10660:	e1a05003 	mov	r5, r3
   10664:	159c3000 	ldrne	r3, [ip]
   10668:	01a0300c 	moveq	r3, ip
   1066c:	116f3f13 	clzne	r3, r3
   10670:	e24ddf4a 	sub	sp, sp, #296	; 0x128
   10674:	e98d0006 	stmib	sp, {r1, r2}
   10678:	e59d2004 	ldr	r2, [sp, #4]
   1067c:	e59de008 	ldr	lr, [sp, #8]
   10680:	e58d000c 	str	r0, [sp, #12]
   10684:	e2820001 	add	r0, r2, #1
   10688:	e59f22e0 	ldr	r2, [pc, #736]	; 10970 <__libc_start_main+0x31c>
   1068c:	e08e0100 	add	r0, lr, r0, lsl #2
   10690:	e5820000 	str	r0, [r2]
   10694:	e59d1148 	ldr	r1, [sp, #328]	; 0x148
   10698:	e59fc2d4 	ldr	ip, [pc, #724]	; 10974 <__libc_start_main+0x320>
   1069c:	e59f22d4 	ldr	r2, [pc, #724]	; 10978 <__libc_start_main+0x324>
   106a0:	11a032a3 	lsrne	r3, r3, #5
   106a4:	e58c3000 	str	r3, [ip]
   106a8:	e5821000 	str	r1, [r2]
   106ac:	e4903004 	ldr	r3, [r0], #4
   106b0:	e3530000 	cmp	r3, #0
   106b4:	1afffffc 	bne	106ac <__libc_start_main+0x58>
   106b8:	eb006720 	bl	2a340 <_dl_aux_init>
   106bc:	e59f32b8 	ldr	r3, [pc, #696]	; 1097c <__libc_start_main+0x328>
   106c0:	e59f22b8 	ldr	r2, [pc, #696]	; 10980 <__libc_start_main+0x32c>
   106c4:	e5933000 	ldr	r3, [r3]
   106c8:	e3520000 	cmp	r2, #0
   106cc:	e16f3f13 	clz	r3, r3
   106d0:	e3a01001 	mov	r1, #1
   106d4:	01a01002 	moveq	r1, r2
   106d8:	e1a032a3 	lsr	r3, r3, #5
   106dc:	e1130001 	tst	r3, r1
   106e0:	0a00000f 	beq	10724 <__libc_start_main+0xd0>
   106e4:	e59f3294 	ldr	r3, [pc, #660]	; 10980 <__libc_start_main+0x32c>
   106e8:	e1d322ba 	ldrh	r2, [r3, #42]	; 0x2a
   106ec:	e3520020 	cmp	r2, #32
   106f0:	0a000004 	beq	10708 <__libc_start_main+0xb4>
   106f4:	e59f3288 	ldr	r3, [pc, #648]	; 10984 <__libc_start_main+0x330>
   106f8:	e3a020af 	mov	r2, #175	; 0xaf
   106fc:	e59f1284 	ldr	r1, [pc, #644]	; 10988 <__libc_start_main+0x334>
   10700:	e59f0284 	ldr	r0, [pc, #644]	; 1098c <__libc_start_main+0x338>
   10704:	eb00024a 	bl	11034 <__assert_fail>
   10708:	e593201c 	ldr	r2, [r3, #28]
   1070c:	e1d312bc 	ldrh	r1, [r3, #44]	; 0x2c
   10710:	e59f0264 	ldr	r0, [pc, #612]	; 1097c <__libc_start_main+0x328>
   10714:	e0823003 	add	r3, r2, r3
   10718:	e59f2270 	ldr	r2, [pc, #624]	; 10990 <__libc_start_main+0x33c>
   1071c:	e5803000 	str	r3, [r0]
   10720:	e5821000 	str	r1, [r2]
   10724:	e59f3248 	ldr	r3, [pc, #584]	; 10974 <__libc_start_main+0x320>
   10728:	e5933000 	ldr	r3, [r3]
   1072c:	e3530000 	cmp	r3, #0
   10730:	0a000018 	beq	10798 <__libc_start_main+0x144>
   10734:	e59f4258 	ldr	r4, [pc, #600]	; 10994 <__libc_start_main+0x340>
   10738:	e59f2258 	ldr	r2, [pc, #600]	; 10998 <__libc_start_main+0x344>
   1073c:	e1540002 	cmp	r4, r2
   10740:	2a000022 	bcs	107d0 <__libc_start_main+0x17c>
   10744:	e5d43004 	ldrb	r3, [r4, #4]
   10748:	e5948000 	ldr	r8, [r4]
   1074c:	e35300a0 	cmp	r3, #160	; 0xa0
   10750:	1a00000e 	bne	10790 <__libc_start_main+0x13c>
   10754:	e1e06004 	mvn	r6, r4
   10758:	e0866002 	add	r6, r6, r2
   1075c:	e3c66007 	bic	r6, r6, #7
   10760:	e59f7234 	ldr	r7, [pc, #564]	; 1099c <__libc_start_main+0x348>
   10764:	e0846006 	add	r6, r4, r6
   10768:	e5983000 	ldr	r3, [r8]
   1076c:	e5970000 	ldr	r0, [r7]
   10770:	e12fff33 	blx	r3
   10774:	e1540006 	cmp	r4, r6
   10778:	e5880000 	str	r0, [r8]
   1077c:	0a000013 	beq	107d0 <__libc_start_main+0x17c>
   10780:	e5d4300c 	ldrb	r3, [r4, #12]
   10784:	e5b48008 	ldr	r8, [r4, #8]!
   10788:	e35300a0 	cmp	r3, #160	; 0xa0
   1078c:	0afffff5 	beq	10768 <__libc_start_main+0x114>
   10790:	e59f0208 	ldr	r0, [pc, #520]	; 109a0 <__libc_start_main+0x34c>
   10794:	eb002399 	bl	19600 <__libc_fatal>
   10798:	eb006b09 	bl	2b3c4 <_dl_discover_osversion>
   1079c:	e3500000 	cmp	r0, #0
   107a0:	ba00006d 	blt	1095c <__libc_start_main+0x308>
   107a4:	e59f31f8 	ldr	r3, [pc, #504]	; 109a4 <__libc_start_main+0x350>
   107a8:	e5933000 	ldr	r3, [r3]
   107ac:	e3530000 	cmp	r3, #0
   107b0:	1a00004d 	bne	108ec <__libc_start_main+0x298>
   107b4:	e59f31e8 	ldr	r3, [pc, #488]	; 109a4 <__libc_start_main+0x350>
   107b8:	e5830000 	str	r0, [r3]
   107bc:	e59f31e4 	ldr	r3, [pc, #484]	; 109a8 <__libc_start_main+0x354>
   107c0:	e1500003 	cmp	r0, r3
   107c4:	caffffda 	bgt	10734 <__libc_start_main+0xe0>
   107c8:	e59f01dc 	ldr	r0, [pc, #476]	; 109ac <__libc_start_main+0x358>
   107cc:	eb00238b 	bl	19600 <__libc_fatal>
   107d0:	eb000169 	bl	10d7c <__pthread_initialize_minimal>
   107d4:	e3a02004 	mov	r2, #4
   107d8:	e59f31d0 	ldr	r3, [pc, #464]	; 109b0 <__libc_start_main+0x35c>
   107dc:	e59f41d0 	ldr	r4, [pc, #464]	; 109b4 <__libc_start_main+0x360>
   107e0:	e5931000 	ldr	r1, [r3]
   107e4:	e5d13000 	ldrb	r3, [r1]
   107e8:	e5d1c001 	ldrb	ip, [r1, #1]
   107ec:	e5d10002 	ldrb	r0, [r1, #2]
   107f0:	e183340c 	orr	r3, r3, ip, lsl #8
   107f4:	e1833800 	orr	r3, r3, r0, lsl #16
   107f8:	e5d10003 	ldrb	r0, [r1, #3]
   107fc:	e0811002 	add	r1, r1, r2
   10800:	e1833c00 	orr	r3, r3, r0, lsl #24
   10804:	e3c330ff 	bic	r3, r3, #255	; 0xff
   10808:	e28d0010 	add	r0, sp, #16
   1080c:	e5843000 	str	r3, [r4]
   10810:	eb00584e 	bl	26950 <memcpy>
   10814:	e59d2144 	ldr	r2, [sp, #324]	; 0x144
   10818:	e59d3010 	ldr	r3, [sp, #16]
   1081c:	e3520000 	cmp	r2, #0
   10820:	e5843004 	str	r3, [r4, #4]
   10824:	0a000003 	beq	10838 <__libc_start_main+0x1e4>
   10828:	e3a02000 	mov	r2, #0
   1082c:	e59d0144 	ldr	r0, [sp, #324]	; 0x144
   10830:	e1a01002 	mov	r1, r2
   10834:	eb0017d1 	bl	16780 <__cxa_atexit>
   10838:	e59f3130 	ldr	r3, [pc, #304]	; 10970 <__libc_start_main+0x31c>
   1083c:	e59d1008 	ldr	r1, [sp, #8]
   10840:	e5932000 	ldr	r2, [r3]
   10844:	e59d0004 	ldr	r0, [sp, #4]
   10848:	eb006b21 	bl	2b4d4 <__libc_init_first>
   1084c:	e59d3140 	ldr	r3, [sp, #320]	; 0x140
   10850:	e3530000 	cmp	r3, #0
   10854:	0a000003 	beq	10868 <__libc_start_main+0x214>
   10858:	e3a02000 	mov	r2, #0
   1085c:	e59d0140 	ldr	r0, [sp, #320]	; 0x140
   10860:	e1a01002 	mov	r1, r2
   10864:	eb0017c5 	bl	16780 <__cxa_atexit>
   10868:	e59f3148 	ldr	r3, [pc, #328]	; 109b8 <__libc_start_main+0x364>
   1086c:	e5933000 	ldr	r3, [r3]
   10870:	e3530000 	cmp	r3, #0
   10874:	0a000000 	beq	1087c <__libc_start_main+0x228>
   10878:	eb000090 	bl	10ac0 <__libc_check_standard_fds>
   1087c:	e3550000 	cmp	r5, #0
   10880:	0a000004 	beq	10898 <__libc_start_main+0x244>
   10884:	e59f30e4 	ldr	r3, [pc, #228]	; 10970 <__libc_start_main+0x31c>
   10888:	e59d1008 	ldr	r1, [sp, #8]
   1088c:	e5932000 	ldr	r2, [r3]
   10890:	e59d0004 	ldr	r0, [sp, #4]
   10894:	e12fff35 	blx	r5
   10898:	e3a01000 	mov	r1, #0
   1089c:	e1a00001 	mov	r0, r1
   108a0:	eb006686 	bl	2a2c0 <_dl_debug_initialize>
   108a4:	e28d0010 	add	r0, sp, #16
   108a8:	eb00147c 	bl	15aa0 <_setjmp>
   108ac:	e3500000 	cmp	r0, #0
   108b0:	1a000010 	bne	108f8 <__libc_start_main+0x2a4>
   108b4:	eb000175 	bl	10e90 <__aeabi_read_tp>
   108b8:	e1a03000 	mov	r3, r0
   108bc:	e59f20ac 	ldr	r2, [pc, #172]	; 10970 <__libc_start_main+0x31c>
   108c0:	e510e440 	ldr	lr, [r0, #-1088]	; 0xfffffbc0
   108c4:	e510c444 	ldr	ip, [r0, #-1092]	; 0xfffffbbc
   108c8:	e28d4010 	add	r4, sp, #16
   108cc:	e5034440 	str	r4, [r3, #-1088]	; 0xfffffbc0
   108d0:	e99d0003 	ldmib	sp, {r0, r1}
   108d4:	e5922000 	ldr	r2, [r2]
   108d8:	e59d300c 	ldr	r3, [sp, #12]
   108dc:	e58de118 	str	lr, [sp, #280]	; 0x118
   108e0:	e58dc11c 	str	ip, [sp, #284]	; 0x11c
   108e4:	e12fff33 	blx	r3
   108e8:	eb001710 	bl	16530 <exit>
   108ec:	e1530000 	cmp	r3, r0
   108f0:	9affffb1 	bls	107bc <__libc_start_main+0x168>
   108f4:	eaffffae 	b	107b4 <__libc_start_main+0x160>
   108f8:	e1a00000 	nop			; (mov r0, r0)
   108fc:	e59f60b8 	ldr	r6, [pc, #184]	; 109bc <__libc_start_main+0x368>
   10900:	e5965000 	ldr	r5, [r6]
   10904:	e1a02006 	mov	r2, r6
   10908:	e2451001 	sub	r1, r5, #1
   1090c:	e1a04005 	mov	r4, r5
   10910:	e5923000 	ldr	r3, [r2]
   10914:	e1530004 	cmp	r3, r4
   10918:	1a000005 	bne	10934 <__libc_start_main+0x2e0>
   1091c:	e1a00004 	mov	r0, r4
   10920:	e3e03a0f 	mvn	r3, #61440	; 0xf000
   10924:	e1a0e00f 	mov	lr, pc
   10928:	e243f03f 	sub	pc, r3, #63	; 0x3f
   1092c:	3afffff7 	bcc	10910 <__libc_start_main+0x2bc>
   10930:	e1a03004 	mov	r3, r4
   10934:	e1550003 	cmp	r5, r3
   10938:	1afffff0 	bne	10900 <__libc_start_main+0x2ac>
   1093c:	e3550001 	cmp	r5, #1
   10940:	0a000007 	beq	10964 <__libc_start_main+0x310>
   10944:	e3a02000 	mov	r2, #0
   10948:	e3a03001 	mov	r3, #1
   1094c:	e1a00002 	mov	r0, r2
   10950:	e1a07003 	mov	r7, r3
   10954:	ef000000 	svc	0x00000000
   10958:	eafffffb 	b	1094c <__libc_start_main+0x2f8>
   1095c:	e59f005c 	ldr	r0, [pc, #92]	; 109c0 <__libc_start_main+0x36c>
   10960:	eb002326 	bl	19600 <__libc_fatal>
   10964:	e3a00000 	mov	r0, #0
   10968:	eaffffde 	b	108e8 <__libc_start_main+0x294>
   1096c:	00000000 	.word	0x00000000
   10970:	00098464 	.word	0x00098464
   10974:	00097c84 	.word	0x00097c84
   10978:	00096fd8 	.word	0x00096fd8
   1097c:	00098f10 	.word	0x00098f10
   10980:	00010000 	.word	0x00010000
   10984:	00071604 	.word	0x00071604
   10988:	0007155c 	.word	0x0007155c
   1098c:	0007156c 	.word	0x0007156c
   10990:	00098f30 	.word	0x00098f30
   10994:	00010158 	.word	0x00010158
   10998:	00010158 	.word	0x00010158
   1099c:	000989b8 	.word	0x000989b8
   109a0:	000715dc 	.word	0x000715dc
   109a4:	00098f40 	.word	0x00098f40
   109a8:	000301ff 	.word	0x000301ff
   109ac:	0007159c 	.word	0x0007159c
   109b0:	00096f94 	.word	0x00096f94
   109b4:	00096f8c 	.word	0x00096f8c
   109b8:	00096fdc 	.word	0x00096fdc
   109bc:	00000000 	.word	0x00000000
   109c0:	000715b4 	.word	0x000715b4

000109c4 <check_one_fd>:
   109c4:	e92d43b0 	push	{r4, r5, r7, r8, r9, lr}
   109c8:	e1a04001 	mov	r4, r1
   109cc:	e24dd068 	sub	sp, sp, #104	; 0x68
   109d0:	e3a01001 	mov	r1, #1
   109d4:	e1a05000 	mov	r5, r0
   109d8:	eb005d14 	bl	27e30 <__libc_fcntl>
   109dc:	e3700001 	cmn	r0, #1
   109e0:	0a000001 	beq	109ec <check_one_fd+0x28>
   109e4:	e28dd068 	add	sp, sp, #104	; 0x68
   109e8:	e8bd83b0 	pop	{r4, r5, r7, r8, r9, pc}
   109ec:	e1a03000 	mov	r3, r0
   109f0:	eb000126 	bl	10e90 <__aeabi_read_tp>
   109f4:	e59f20ac 	ldr	r2, [pc, #172]	; 10aa8 <check_one_fd+0xe4>
   109f8:	e79f2002 	ldr	r2, [pc, r2]
   109fc:	e7902002 	ldr	r2, [r0, r2]
   10a00:	e3520009 	cmp	r2, #9
   10a04:	1afffff6 	bne	109e4 <check_one_fd+0x20>
   10a08:	e2042003 	and	r2, r4, #3
   10a0c:	e3520001 	cmp	r2, #1
   10a10:	159f8094 	ldrne	r8, [pc, #148]	; 10aac <check_one_fd+0xe8>
   10a14:	13a09000 	movne	r9, #0
   10a18:	159f0090 	ldrne	r0, [pc, #144]	; 10ab0 <check_one_fd+0xec>
   10a1c:	059f8090 	ldreq	r8, [pc, #144]	; 10ab4 <check_one_fd+0xf0>
   10a20:	03a09000 	moveq	r9, #0
   10a24:	059f008c 	ldreq	r0, [pc, #140]	; 10ab8 <check_one_fd+0xf4>
   10a28:	e1a01004 	mov	r1, r4
   10a2c:	e3a02000 	mov	r2, #0
   10a30:	e3a07005 	mov	r7, #5
   10a34:	ef000000 	svc	0x00000000
   10a38:	e3700a01 	cmn	r0, #4096	; 0x1000
   10a3c:	e1a02000 	mov	r2, r0
   10a40:	8a000011 	bhi	10a8c <check_one_fd+0xc8>
   10a44:	e1550002 	cmp	r5, r2
   10a48:	1a00000e 	bne	10a88 <check_one_fd+0xc4>
   10a4c:	e1a01005 	mov	r1, r5
   10a50:	e1a0200d 	mov	r2, sp
   10a54:	e3a00003 	mov	r0, #3
   10a58:	eb005c5d 	bl	27bd4 <___fxstat64>
   10a5c:	e3500000 	cmp	r0, #0
   10a60:	1a000008 	bne	10a88 <check_one_fd+0xc4>
   10a64:	e59d3010 	ldr	r3, [sp, #16]
   10a68:	e2033a0f 	and	r3, r3, #61440	; 0xf000
   10a6c:	e3530a02 	cmp	r3, #8192	; 0x2000
   10a70:	1a000004 	bne	10a88 <check_one_fd+0xc4>
   10a74:	e28d3020 	add	r3, sp, #32
   10a78:	e893000c 	ldm	r3, {r2, r3}
   10a7c:	e1530009 	cmp	r3, r9
   10a80:	01520008 	cmpeq	r2, r8
   10a84:	0affffd6 	beq	109e4 <check_one_fd+0x20>
   10a88:	e7f000f0 	udf	#0
   10a8c:	eb0000ff 	bl	10e90 <__aeabi_read_tp>
   10a90:	e2621000 	rsb	r1, r2, #0
   10a94:	e1a02003 	mov	r2, r3
   10a98:	e59f301c 	ldr	r3, [pc, #28]	; 10abc <check_one_fd+0xf8>
   10a9c:	e79f3003 	ldr	r3, [pc, r3]
   10aa0:	e7801003 	str	r1, [r0, r3]
   10aa4:	eaffffe6 	b	10a44 <check_one_fd+0x80>
   10aa8:	00086640 	.word	0x00086640
   10aac:	00000103 	.word	0x00000103
   10ab0:	00071624 	.word	0x00071624
   10ab4:	00000107 	.word	0x00000107
   10ab8:	00071618 	.word	0x00071618
   10abc:	0008659c 	.word	0x0008659c

00010ac0 <__libc_check_standard_fds>:
   10ac0:	e92d4010 	push	{r4, lr}
   10ac4:	e59f1020 	ldr	r1, [pc, #32]	; 10aec <__libc_check_standard_fds+0x2c>
   10ac8:	e3a00000 	mov	r0, #0
   10acc:	ebffffbc 	bl	109c4 <check_one_fd>
   10ad0:	e3a01902 	mov	r1, #32768	; 0x8000
   10ad4:	e3a00001 	mov	r0, #1
   10ad8:	ebffffb9 	bl	109c4 <check_one_fd>
   10adc:	e8bd4010 	pop	{r4, lr}
   10ae0:	e3a01902 	mov	r1, #32768	; 0x8000
   10ae4:	e3a00002 	mov	r0, #2
   10ae8:	eaffffb5 	b	109c4 <check_one_fd>
   10aec:	00008001 	.word	0x00008001

00010af0 <__libc_setup_tls>:
   10af0:	e92d4ff0 	push	{r4, r5, r6, r7, r8, r9, sl, fp, lr}
   10af4:	e59f31d4 	ldr	r3, [pc, #468]	; 10cd0 <__libc_setup_tls+0x1e0>
   10af8:	e24dd014 	sub	sp, sp, #20
   10afc:	e5934000 	ldr	r4, [r3]
   10b00:	e1a06001 	mov	r6, r1
   10b04:	e3540000 	cmp	r4, #0
   10b08:	0a00001c 	beq	10b80 <__libc_setup_tls+0x90>
   10b0c:	e59f31c0 	ldr	r3, [pc, #448]	; 10cd4 <__libc_setup_tls+0x1e4>
   10b10:	e5932000 	ldr	r2, [r3]
   10b14:	e0842282 	add	r2, r4, r2, lsl #5
   10b18:	e1520004 	cmp	r2, r4
   10b1c:	8a000003 	bhi	10b30 <__libc_setup_tls+0x40>
   10b20:	ea000015 	b	10b7c <__libc_setup_tls+0x8c>
   10b24:	e2844020 	add	r4, r4, #32
   10b28:	e1520004 	cmp	r2, r4
   10b2c:	9a000012 	bls	10b7c <__libc_setup_tls+0x8c>
   10b30:	e5943000 	ldr	r3, [r4]
   10b34:	e3530007 	cmp	r3, #7
   10b38:	1afffff9 	bne	10b24 <__libc_setup_tls+0x34>
   10b3c:	e594901c 	ldr	r9, [r4, #28]
   10b40:	e5943014 	ldr	r3, [r4, #20]
   10b44:	e1560009 	cmp	r6, r9
   10b48:	e58d3004 	str	r3, [sp, #4]
   10b4c:	e5943010 	ldr	r3, [r4, #16]
   10b50:	31a06009 	movcc	r6, r9
   10b54:	e3590000 	cmp	r9, #0
   10b58:	e58d3008 	str	r3, [sp, #8]
   10b5c:	e5944008 	ldr	r4, [r4, #8]
   10b60:	0a000008 	beq	10b88 <__libc_setup_tls+0x98>
   10b64:	e2493001 	sub	r3, r9, #1
   10b68:	e0830000 	add	r0, r3, r0
   10b6c:	e1a01009 	mov	r1, r9
   10b70:	eb017435 	bl	6dc4c <__aeabi_uidiv>
   10b74:	e1a05009 	mov	r5, r9
   10b78:	ea000004 	b	10b90 <__libc_setup_tls+0xa0>
   10b7c:	e3a04000 	mov	r4, #0
   10b80:	e58d4008 	str	r4, [sp, #8]
   10b84:	e58d4004 	str	r4, [sp, #4]
   10b88:	e3a09000 	mov	r9, #0
   10b8c:	e3a05001 	mov	r5, #1
   10b90:	e59fb140 	ldr	fp, [pc, #320]	; 10cd8 <__libc_setup_tls+0x1e8>
   10b94:	e0050590 	mul	r5, r0, r5
   10b98:	e59b0000 	ldr	r0, [fp]
   10b9c:	e59d3004 	ldr	r3, [sp, #4]
   10ba0:	e2800d13 	add	r0, r0, #1216	; 0x4c0
   10ba4:	e0800003 	add	r0, r0, r3
   10ba8:	e0800006 	add	r0, r0, r6
   10bac:	e0800005 	add	r0, r0, r5
   10bb0:	eb005efd 	bl	287ac <__sbrk>
   10bb4:	e3a0a001 	mov	sl, #1
   10bb8:	e3a0c03e 	mov	ip, #62	; 0x3e
   10bbc:	e2463001 	sub	r3, r6, #1
   10bc0:	e59f1114 	ldr	r1, [pc, #276]	; 10cdc <__libc_setup_tls+0x1ec>
   10bc4:	e2800d13 	add	r0, r0, #1216	; 0x4c0
   10bc8:	e0800003 	add	r0, r0, r3
   10bcc:	e2663000 	rsb	r3, r6, #0
   10bd0:	e0033000 	and	r3, r3, r0
   10bd4:	e5918000 	ldr	r8, [r1]
   10bd8:	e59f7100 	ldr	r7, [pc, #256]	; 10ce0 <__libc_setup_tls+0x1f0>
   10bdc:	e0831005 	add	r1, r3, r5
   10be0:	e5871010 	str	r1, [r7, #16]
   10be4:	e587c000 	str	ip, [r7]
   10be8:	e5c7a014 	strb	sl, [r7, #20]
   10bec:	e1a00001 	mov	r0, r1
   10bf0:	e588523c 	str	r5, [r8, #572]	; 0x23c
   10bf4:	e59d2008 	ldr	r2, [sp, #8]
   10bf8:	e1a01004 	mov	r1, r4
   10bfc:	e58d300c 	str	r3, [sp, #12]
   10c00:	eb005752 	bl	26950 <memcpy>
   10c04:	e59d300c 	ldr	r3, [sp, #12]
   10c08:	e2877008 	add	r7, r7, #8
   10c0c:	e5837000 	str	r7, [r3]
   10c10:	e1a00003 	mov	r0, r3
   10c14:	e59f70c8 	ldr	r7, [pc, #200]	; 10ce4 <__libc_setup_tls+0x1f4>
   10c18:	ef000000 	svc	0x00000000
   10c1c:	e3700a01 	cmn	r0, #4096	; 0x1000
   10c20:	9a000001 	bls	10c2c <__libc_setup_tls+0x13c>
   10c24:	e59f00bc 	ldr	r0, [pc, #188]	; 10ce8 <__libc_setup_tls+0x1f8>
   10c28:	eb002274 	bl	19600 <__libc_fatal>
   10c2c:	e3a02040 	mov	r2, #64	; 0x40
   10c30:	e59f30b4 	ldr	r3, [pc, #180]	; 10cec <__libc_setup_tls+0x1fc>
   10c34:	e59d1008 	ldr	r1, [sp, #8]
   10c38:	e59d0004 	ldr	r0, [sp, #4]
   10c3c:	e588122c 	str	r1, [r8, #556]	; 0x22c
   10c40:	e5832000 	str	r2, [r3]
   10c44:	e59f10a4 	ldr	r1, [pc, #164]	; 10cf0 <__libc_setup_tls+0x200>
   10c48:	e59f20a4 	ldr	r2, [pc, #164]	; 10cf4 <__libc_setup_tls+0x204>
   10c4c:	e3590000 	cmp	r9, #0
   10c50:	e5889234 	str	r9, [r8, #564]	; 0x234
   10c54:	e5880230 	str	r0, [r8, #560]	; 0x230
   10c58:	e5884228 	str	r4, [r8, #552]	; 0x228
   10c5c:	e588a240 	str	sl, [r8, #576]	; 0x240
   10c60:	e5838014 	str	r8, [r3, #20]
   10c64:	e5813000 	str	r3, [r1]
   10c68:	e582a000 	str	sl, [r2]
   10c6c:	01a0900a 	moveq	r9, sl
   10c70:	1a000010 	bne	10cb8 <__libc_setup_tls+0x1c8>
   10c74:	e3560010 	cmp	r6, #16
   10c78:	33a06010 	movcc	r6, #16
   10c7c:	e3a01001 	mov	r1, #1
   10c80:	e0255990 	mla	r5, r0, r9, r5
   10c84:	e59b3000 	ldr	r3, [fp]
   10c88:	e59fc068 	ldr	ip, [pc, #104]	; 10cf8 <__libc_setup_tls+0x208>
   10c8c:	e283300f 	add	r3, r3, #15
   10c90:	e59f0064 	ldr	r0, [pc, #100]	; 10cfc <__libc_setup_tls+0x20c>
   10c94:	e0833005 	add	r3, r3, r5
   10c98:	e59f2060 	ldr	r2, [pc, #96]	; 10d00 <__libc_setup_tls+0x210>
   10c9c:	e3c3300f 	bic	r3, r3, #15
   10ca0:	e58c6000 	str	r6, [ip]
   10ca4:	e5805000 	str	r5, [r0]
   10ca8:	e58b3000 	str	r3, [fp]
   10cac:	e5821000 	str	r1, [r2]
   10cb0:	e28dd014 	add	sp, sp, #20
   10cb4:	e8bd8ff0 	pop	{r4, r5, r6, r7, r8, r9, sl, fp, pc}
   10cb8:	e59d3004 	ldr	r3, [sp, #4]
   10cbc:	e1a01009 	mov	r1, r9
   10cc0:	e0830009 	add	r0, r3, r9
   10cc4:	e2400001 	sub	r0, r0, #1
   10cc8:	eb0173df 	bl	6dc4c <__aeabi_uidiv>
   10ccc:	eaffffe8 	b	10c74 <__libc_setup_tls+0x184>
   10cd0:	00098f10 	.word	0x00098f10
   10cd4:	00098f30 	.word	0x00098f30
   10cd8:	00097080 	.word	0x00097080
   10cdc:	00097c20 	.word	0x00097c20
   10ce0:	00098ca8 	.word	0x00098ca8
   10ce4:	000f0005 	.word	0x000f0005
   10ce8:	00071630 	.word	0x00071630
   10cec:	00097eec 	.word	0x00097eec
   10cf0:	00098ea8 	.word	0x00098ea8
   10cf4:	00098ca4 	.word	0x00098ca4
   10cf8:	00098ca0 	.word	0x00098ca0
   10cfc:	00098c9c 	.word	0x00098c9c
   10d00:	00098eb4 	.word	0x00098eb4

00010d04 <_dl_tls_setup>:
   10d04:	e92d40f0 	push	{r4, r5, r6, r7, lr}
   10d08:	e3a02001 	mov	r2, #1
   10d0c:	e3a07040 	mov	r7, #64	; 0x40
   10d10:	e3a00000 	mov	r0, #0
   10d14:	e3a0e010 	mov	lr, #16
   10d18:	e59fc040 	ldr	ip, [pc, #64]	; 10d60 <_dl_tls_setup+0x5c>
   10d1c:	e59f1040 	ldr	r1, [pc, #64]	; 10d64 <_dl_tls_setup+0x60>
   10d20:	e59c3000 	ldr	r3, [ip]
   10d24:	e59f603c 	ldr	r6, [pc, #60]	; 10d68 <_dl_tls_setup+0x64>
   10d28:	e283300f 	add	r3, r3, #15
   10d2c:	e3c3300f 	bic	r3, r3, #15
   10d30:	e58c3000 	str	r3, [ip]
   10d34:	e59f5030 	ldr	r5, [pc, #48]	; 10d6c <_dl_tls_setup+0x68>
   10d38:	e59f4030 	ldr	r4, [pc, #48]	; 10d70 <_dl_tls_setup+0x6c>
   10d3c:	e59fc030 	ldr	ip, [pc, #48]	; 10d74 <_dl_tls_setup+0x70>
   10d40:	e59f3030 	ldr	r3, [pc, #48]	; 10d78 <_dl_tls_setup+0x74>
   10d44:	e5817000 	str	r7, [r1]
   10d48:	e5861000 	str	r1, [r6]
   10d4c:	e5852000 	str	r2, [r5]
   10d50:	e5842000 	str	r2, [r4]
   10d54:	e58c0000 	str	r0, [ip]
   10d58:	e583e000 	str	lr, [r3]
   10d5c:	e8bd80f0 	pop	{r4, r5, r6, r7, pc}
   10d60:	00097080 	.word	0x00097080
   10d64:	00097eec 	.word	0x00097eec
   10d68:	00098ea8 	.word	0x00098ea8
   10d6c:	00098ca4 	.word	0x00098ca4
   10d70:	00098eb4 	.word	0x00098eb4
   10d74:	00098c9c 	.word	0x00098c9c
   10d78:	00098ca0 	.word	0x00098ca0

00010d7c <__pthread_initialize_minimal>:
   10d7c:	e3a01010 	mov	r1, #16
   10d80:	e3a00008 	mov	r0, #8
   10d84:	eaffff59 	b	10af0 <__libc_setup_tls>

00010d88 <__tls_get_addr>:
   10d88:	e52de004 	push	{lr}		; (str lr, [sp, #-4]!)
   10d8c:	e1a03000 	mov	r3, r0
   10d90:	eb00003e 	bl	10e90 <__aeabi_read_tp>
   10d94:	e5902000 	ldr	r2, [r0]
   10d98:	e5933004 	ldr	r3, [r3, #4]
   10d9c:	e5920008 	ldr	r0, [r2, #8]
   10da0:	e0800003 	add	r0, r0, r3
   10da4:	e49df004 	pop	{pc}		; (ldr pc, [sp], #4)

00010da8 <__libc_csu_init>:
   10da8:	e92d47f0 	push	{r4, r5, r6, r7, r8, r9, sl, lr}
   10dac:	e59f9080 	ldr	r9, [pc, #128]	; 10e34 <__libc_csu_init+0x8c>
   10db0:	e59f5080 	ldr	r5, [pc, #128]	; 10e38 <__libc_csu_init+0x90>
   10db4:	e1a06000 	mov	r6, r0
   10db8:	e0499005 	sub	r9, r9, r5
   10dbc:	e1b09149 	asrs	r9, r9, #2
   10dc0:	e1a07001 	mov	r7, r1
   10dc4:	e1a08002 	mov	r8, r2
   10dc8:	13a04000 	movne	r4, #0
   10dcc:	0a000007 	beq	10df0 <__libc_csu_init+0x48>
   10dd0:	e2844001 	add	r4, r4, #1
   10dd4:	e4953004 	ldr	r3, [r5], #4
   10dd8:	e1a02008 	mov	r2, r8
   10ddc:	e1a01007 	mov	r1, r7
   10de0:	e1a00006 	mov	r0, r6
   10de4:	e12fff33 	blx	r3
   10de8:	e1540009 	cmp	r4, r9
   10dec:	1afffff7 	bne	10dd0 <__libc_csu_init+0x28>
   10df0:	e59f9044 	ldr	r9, [pc, #68]	; 10e3c <__libc_csu_init+0x94>
   10df4:	e59f5044 	ldr	r5, [pc, #68]	; 10e40 <__libc_csu_init+0x98>
   10df8:	ebfffcd6 	bl	10158 <__rel_iplt_end>
   10dfc:	e0499005 	sub	r9, r9, r5
   10e00:	e1b09149 	asrs	r9, r9, #2
   10e04:	13a04000 	movne	r4, #0
   10e08:	0a000008 	beq	10e30 <__libc_csu_init+0x88>
   10e0c:	e2844001 	add	r4, r4, #1
   10e10:	e4953004 	ldr	r3, [r5], #4
   10e14:	e1a02008 	mov	r2, r8
   10e18:	e1a01007 	mov	r1, r7
   10e1c:	e1a00006 	mov	r0, r6
   10e20:	e12fff33 	blx	r3
   10e24:	e1540009 	cmp	r4, r9
   10e28:	1afffff7 	bne	10e0c <__libc_csu_init+0x64>
   10e2c:	e8bd87f0 	pop	{r4, r5, r6, r7, r8, r9, sl, pc}
   10e30:	e8bd87f0 	pop	{r4, r5, r6, r7, r8, r9, sl, pc}
   10e34:	00096f7c 	.word	0x00096f7c
   10e38:	00096f7c 	.word	0x00096f7c
   10e3c:	00096f80 	.word	0x00096f80
   10e40:	00096f7c 	.word	0x00096f7c

00010e44 <__libc_csu_fini>:
   10e44:	e92d4070 	push	{r4, r5, r6, lr}
   10e48:	e59f302c 	ldr	r3, [pc, #44]	; 10e7c <__libc_csu_fini+0x38>
   10e4c:	e59f502c 	ldr	r5, [pc, #44]	; 10e80 <__libc_csu_fini+0x3c>
   10e50:	e0433005 	sub	r3, r3, r5
   10e54:	e1b03143 	asrs	r3, r3, #2
   10e58:	11a04003 	movne	r4, r3
   10e5c:	10855103 	addne	r5, r5, r3, lsl #2
   10e60:	0a000003 	beq	10e74 <__libc_csu_fini+0x30>
   10e64:	e5353004 	ldr	r3, [r5, #-4]!
   10e68:	e12fff33 	blx	r3
   10e6c:	e2544001 	subs	r4, r4, #1
   10e70:	1afffffb 	bne	10e64 <__libc_csu_fini+0x20>
   10e74:	e8bd4070 	pop	{r4, r5, r6, lr}
   10e78:	ea0181af 	b	7153c <_fini>
   10e7c:	00096f88 	.word	0x00096f88
   10e80:	00096f80 	.word	0x00096f80
	...

00010e90 <__aeabi_read_tp>:
   10e90:	e3e00a0f 	mvn	r0, #61440	; 0xf000
   10e94:	e240f01f 	sub	pc, r0, #31

00010e98 <__assert_fail_base>:
   10e98:	e92d4080 	push	{r7, lr}
   10e9c:	e59fc16c 	ldr	ip, [pc, #364]	; 11010 <__assert_fail_base+0x178>
   10ea0:	e24dd020 	sub	sp, sp, #32
   10ea4:	e35c0000 	cmp	ip, #0
   10ea8:	e1a05000 	mov	r5, r0
   10eac:	e1a06001 	mov	r6, r1
   10eb0:	e1a07002 	mov	r7, r2
   10eb4:	e1a08003 	mov	r8, r3
   10eb8:	e59d4028 	ldr	r4, [sp, #40]	; 0x28
   10ebc:	0a000002 	beq	10ecc <__assert_fail_base+0x34>
   10ec0:	e3a01000 	mov	r1, #0
   10ec4:	e3a00001 	mov	r0, #1
   10ec8:	e1a00000 	nop			; (mov r0, r0)
   10ecc:	e59f3140 	ldr	r3, [pc, #320]	; 11014 <__assert_fail_base+0x17c>
   10ed0:	e59f1140 	ldr	r1, [pc, #320]	; 11018 <__assert_fail_base+0x180>
   10ed4:	e5932000 	ldr	r2, [r3]
   10ed8:	e59fc13c 	ldr	ip, [pc, #316]	; 1101c <__assert_fail_base+0x184>
   10edc:	e5d20000 	ldrb	r0, [r2]
   10ee0:	e58d6010 	str	r6, [sp, #16]
   10ee4:	e3500000 	cmp	r0, #0
   10ee8:	11a03001 	movne	r3, r1
   10eec:	01a0300c 	moveq	r3, ip
   10ef0:	e3540000 	cmp	r4, #0
   10ef4:	01a0400c 	moveq	r4, ip
   10ef8:	01a01004 	moveq	r1, r4
   10efc:	e28d001c 	add	r0, sp, #28
   10f00:	e58d100c 	str	r1, [sp, #12]
   10f04:	e58d0014 	str	r0, [sp, #20]
   10f08:	e58d4008 	str	r4, [sp, #8]
   10f0c:	e88d0180 	stm	sp, {r7, r8}
   10f10:	e1a01005 	mov	r1, r5
   10f14:	e28d0018 	add	r0, sp, #24
   10f18:	eb0017ec 	bl	16ed0 <___asprintf>
   10f1c:	e3500000 	cmp	r0, #0
   10f20:	ba000035 	blt	10ffc <__assert_fail_base+0x164>
   10f24:	e59d2018 	ldr	r2, [sp, #24]
   10f28:	e59f10f0 	ldr	r1, [pc, #240]	; 11020 <__assert_fail_base+0x188>
   10f2c:	e3a00000 	mov	r0, #0
   10f30:	eb0017f2 	bl	16f00 <__fxprintf>
   10f34:	e59f30e8 	ldr	r3, [pc, #232]	; 11024 <__assert_fail_base+0x18c>
   10f38:	e5930000 	ldr	r0, [r3]
   10f3c:	eb0018f9 	bl	17328 <_IO_fflush>
   10f40:	e3a00000 	mov	r0, #0
   10f44:	e3e02000 	mvn	r2, #0
   10f48:	e59f30d8 	ldr	r3, [pc, #216]	; 11028 <__assert_fail_base+0x190>
   10f4c:	e59dc01c 	ldr	ip, [sp, #28]
   10f50:	e5933000 	ldr	r3, [r3]
   10f54:	e58d2000 	str	r2, [sp]
   10f58:	e083c00c 	add	ip, r3, ip
   10f5c:	e2633000 	rsb	r3, r3, #0
   10f60:	e00cc003 	and	ip, ip, r3
   10f64:	e58d0004 	str	r0, [sp, #4]
   10f68:	e1a0100c 	mov	r1, ip
   10f6c:	e3a03022 	mov	r3, #34	; 0x22
   10f70:	e3a02003 	mov	r2, #3
   10f74:	e58dc01c 	str	ip, [sp, #28]
   10f78:	eb005e53 	bl	288cc <__mmap>
   10f7c:	e3700001 	cmn	r0, #1
   10f80:	e1a06000 	mov	r6, r0
   10f84:	0a000019 	beq	10ff0 <__assert_fail_base+0x158>
   10f88:	e59d301c 	ldr	r3, [sp, #28]
   10f8c:	e59f7098 	ldr	r7, [pc, #152]	; 1102c <__assert_fail_base+0x194>
   10f90:	e59d1018 	ldr	r1, [sp, #24]
   10f94:	e4803004 	str	r3, [r0], #4
   10f98:	eb00517e 	bl	25598 <strcpy>
   10f9c:	e1a08007 	mov	r8, r7
   10fa0:	e5975000 	ldr	r5, [r7]
   10fa4:	e1a01006 	mov	r1, r6
   10fa8:	e1a04005 	mov	r4, r5
   10fac:	e1a02008 	mov	r2, r8
   10fb0:	e5923000 	ldr	r3, [r2]
   10fb4:	e1530004 	cmp	r3, r4
   10fb8:	1a000005 	bne	10fd4 <__assert_fail_base+0x13c>
   10fbc:	e1a00004 	mov	r0, r4
   10fc0:	e3e03a0f 	mvn	r3, #61440	; 0xf000
   10fc4:	e1a0e00f 	mov	lr, pc
   10fc8:	e243f03f 	sub	pc, r3, #63	; 0x3f
   10fcc:	3afffff7 	bcc	10fb0 <__assert_fail_base+0x118>
   10fd0:	e1a03004 	mov	r3, r4
   10fd4:	e1550003 	cmp	r5, r3
   10fd8:	1afffff0 	bne	10fa0 <__assert_fail_base+0x108>
   10fdc:	e3550000 	cmp	r5, #0
   10fe0:	0a000002 	beq	10ff0 <__assert_fail_base+0x158>
   10fe4:	e5951000 	ldr	r1, [r5]
   10fe8:	e1a00005 	mov	r0, r5
   10fec:	eb005e7f 	bl	289f0 <__munmap>
   10ff0:	e59d0018 	ldr	r0, [sp, #24]
   10ff4:	eb004910 	bl	2343c <__cfree>
   10ff8:	eb0012aa 	bl	15aa8 <abort>
   10ffc:	e3a02012 	mov	r2, #18
   11000:	e59f1028 	ldr	r1, [pc, #40]	; 11030 <__assert_fail_base+0x198>
   11004:	e3a00002 	mov	r0, #2
   11008:	eb005b54 	bl	27d60 <__libc_write>
   1100c:	eafffff9 	b	10ff8 <__assert_fail_base+0x160>
   11010:	00000000 	.word	0x00000000
   11014:	00097954 	.word	0x00097954
   11018:	00081e4c 	.word	0x00081e4c
   1101c:	000827fc 	.word	0x000827fc
   11020:	0008530c 	.word	0x0008530c
   11024:	0009749c 	.word	0x0009749c
   11028:	00097960 	.word	0x00097960
   1102c:	000981a8 	.word	0x000981a8
   11030:	0007166c 	.word	0x0007166c

00011034 <__assert_fail>:
   11034:	e92d4080 	push	{r7, lr}
   11038:	e1a04000 	mov	r4, r0
   1103c:	e1a07003 	mov	r7, r3
   11040:	e1a05001 	mov	r5, r1
   11044:	e1a06002 	mov	r6, r2
   11048:	e24dd008 	sub	sp, sp, #8
   1104c:	e3a02005 	mov	r2, #5
   11050:	e59f1018 	ldr	r1, [pc, #24]	; 11070 <__assert_fail+0x3c>
   11054:	e59f0018 	ldr	r0, [pc, #24]	; 11074 <__assert_fail+0x40>
   11058:	eb000006 	bl	11078 <__dcgettext>
   1105c:	e58d7000 	str	r7, [sp]
   11060:	e1a03006 	mov	r3, r6
   11064:	e1a02005 	mov	r2, r5
   11068:	e1a01004 	mov	r1, r4
   1106c:	ebffff89 	bl	10e98 <__assert_fail_base>
   11070:	00071640 	.word	0x00071640
   11074:	00080218 	.word	0x00080218

00011078 <__dcgettext>:
   11078:	e3a03000 	mov	r3, #0
   1107c:	e52de004 	push	{lr}		; (str lr, [sp, #-4]!)
   11080:	e24dd00c 	sub	sp, sp, #12
   11084:	e58d2004 	str	r2, [sp, #4]
   11088:	e58d3000 	str	r3, [sp]
   1108c:	e1a02003 	mov	r2, r3
   11090:	eb00039f 	bl	11f14 <__dcigettext>
   11094:	e28dd00c 	add	sp, sp, #12
   11098:	e49df004 	pop	{pc}		; (ldr pc, [sp], #4)

0001109c <plural_eval>:
   1109c:	e92d41f0 	push	{r4, r5, r6, r7, r8, lr}
   110a0:	e1a05000 	mov	r5, r0
   110a4:	e1a04001 	mov	r4, r1
   110a8:	e5953000 	ldr	r3, [r5]
   110ac:	e3530003 	cmp	r3, #3
   110b0:	979ff103 	ldrls	pc, [pc, r3, lsl #2]
   110b4:	ea000042 	b	111c4 <plural_eval+0x128>
   110b8:	00011130 	.word	0x00011130
   110bc:	00011118 	.word	0x00011118
   110c0:	000110e8 	.word	0x000110e8
   110c4:	000110c8 	.word	0x000110c8
   110c8:	e5950008 	ldr	r0, [r5, #8]
   110cc:	e1a01004 	mov	r1, r4
   110d0:	ebfffff1 	bl	1109c <plural_eval>
   110d4:	e3500000 	cmp	r0, #0
   110d8:	13a00003 	movne	r0, #3
   110dc:	03a00004 	moveq	r0, #4
   110e0:	e7955100 	ldr	r5, [r5, r0, lsl #2]
   110e4:	eaffffef 	b	110a8 <plural_eval+0xc>
   110e8:	e1a01004 	mov	r1, r4
   110ec:	e5950008 	ldr	r0, [r5, #8]
   110f0:	ebffffe9 	bl	1109c <plural_eval>
   110f4:	e5956004 	ldr	r6, [r5, #4]
   110f8:	e1a07000 	mov	r7, r0
   110fc:	e356000f 	cmp	r6, #15
   11100:	0a000013 	beq	11154 <plural_eval+0xb8>
   11104:	e356000e 	cmp	r6, #14
   11108:	1a00001b 	bne	1117c <plural_eval+0xe0>
   1110c:	e3500000 	cmp	r0, #0
   11110:	1a000013 	bne	11164 <plural_eval+0xc8>
   11114:	e8bd81f0 	pop	{r4, r5, r6, r7, r8, pc}
   11118:	e1a01004 	mov	r1, r4
   1111c:	e5950008 	ldr	r0, [r5, #8]
   11120:	ebffffdd 	bl	1109c <plural_eval>
   11124:	e16f0f10 	clz	r0, r0
   11128:	e1a002a0 	lsr	r0, r0, #5
   1112c:	e8bd81f0 	pop	{r4, r5, r6, r7, r8, pc}
   11130:	e5953004 	ldr	r3, [r5, #4]
   11134:	e3530000 	cmp	r3, #0
   11138:	0a000003 	beq	1114c <plural_eval+0xb0>
   1113c:	e3530001 	cmp	r3, #1
   11140:	1a00001f 	bne	111c4 <plural_eval+0x128>
   11144:	e5950008 	ldr	r0, [r5, #8]
   11148:	e8bd81f0 	pop	{r4, r5, r6, r7, r8, pc}
   1114c:	e1a00004 	mov	r0, r4
   11150:	e8bd81f0 	pop	{r4, r5, r6, r7, r8, pc}
   11154:	e3500000 	cmp	r0, #0
   11158:	0a000001 	beq	11164 <plural_eval+0xc8>
   1115c:	e3a00001 	mov	r0, #1
   11160:	e8bd81f0 	pop	{r4, r5, r6, r7, r8, pc}
   11164:	e1a01004 	mov	r1, r4
   11168:	e595000c 	ldr	r0, [r5, #12]
   1116c:	ebffffca 	bl	1109c <plural_eval>
   11170:	e2900000 	adds	r0, r0, #0
   11174:	13a00001 	movne	r0, #1
   11178:	e8bd81f0 	pop	{r4, r5, r6, r7, r8, pc}
   1117c:	e1a01004 	mov	r1, r4
   11180:	e595000c 	ldr	r0, [r5, #12]
   11184:	e2466003 	sub	r6, r6, #3
   11188:	ebffffc3 	bl	1109c <plural_eval>
   1118c:	e356000a 	cmp	r6, #10
   11190:	979ff106 	ldrls	pc, [pc, r6, lsl #2]
   11194:	ea00000a 	b	111c4 <plural_eval+0x128>
   11198:	0001125c 	.word	0x0001125c
   1119c:	0001124c 	.word	0x0001124c
   111a0:	00011238 	.word	0x00011238
   111a4:	00011230 	.word	0x00011230
   111a8:	00011228 	.word	0x00011228
   111ac:	00011218 	.word	0x00011218
   111b0:	00011208 	.word	0x00011208
   111b4:	000111f8 	.word	0x000111f8
   111b8:	000111e8 	.word	0x000111e8
   111bc:	000111d8 	.word	0x000111d8
   111c0:	000111cc 	.word	0x000111cc
   111c4:	e3a00000 	mov	r0, #0
   111c8:	e8bd81f0 	pop	{r4, r5, r6, r7, r8, pc}
   111cc:	e0570000 	subs	r0, r7, r0
   111d0:	13a00001 	movne	r0, #1
   111d4:	e8bd81f0 	pop	{r4, r5, r6, r7, r8, pc}
   111d8:	e0470000 	sub	r0, r7, r0
   111dc:	e16f0f10 	clz	r0, r0
   111e0:	e1a002a0 	lsr	r0, r0, #5
   111e4:	e8bd81f0 	pop	{r4, r5, r6, r7, r8, pc}
   111e8:	e1570000 	cmp	r7, r0
   111ec:	33a00000 	movcc	r0, #0
   111f0:	23a00001 	movcs	r0, #1
   111f4:	e8bd81f0 	pop	{r4, r5, r6, r7, r8, pc}
   111f8:	e1570000 	cmp	r7, r0
   111fc:	83a00000 	movhi	r0, #0
   11200:	93a00001 	movls	r0, #1
   11204:	e8bd81f0 	pop	{r4, r5, r6, r7, r8, pc}
   11208:	e1570000 	cmp	r7, r0
   1120c:	93a00000 	movls	r0, #0
   11210:	83a00001 	movhi	r0, #1
   11214:	e8bd81f0 	pop	{r4, r5, r6, r7, r8, pc}
   11218:	e1570000 	cmp	r7, r0
   1121c:	23a00000 	movcs	r0, #0
   11220:	33a00001 	movcc	r0, #1
   11224:	e8bd81f0 	pop	{r4, r5, r6, r7, r8, pc}
   11228:	e0470000 	sub	r0, r7, r0
   1122c:	e8bd81f0 	pop	{r4, r5, r6, r7, r8, pc}
   11230:	e0870000 	add	r0, r7, r0
   11234:	e8bd81f0 	pop	{r4, r5, r6, r7, r8, pc}
   11238:	e1a01000 	mov	r1, r0
   1123c:	e1a00007 	mov	r0, r7
   11240:	eb0172fc 	bl	6de38 <__aeabi_uidivmod>
   11244:	e1a00001 	mov	r0, r1
   11248:	e8bd81f0 	pop	{r4, r5, r6, r7, r8, pc}
   1124c:	e1a01000 	mov	r1, r0
   11250:	e1a00007 	mov	r0, r7
   11254:	eb01727c 	bl	6dc4c <__aeabi_uidiv>
   11258:	e8bd81f0 	pop	{r4, r5, r6, r7, r8, pc}
   1125c:	e0000097 	mul	r0, r7, r0
   11260:	e8bd81f0 	pop	{r4, r5, r6, r7, r8, pc}

00011264 <transcmp>:
   11264:	e92d4070 	push	{r4, r5, r6, lr}
   11268:	e1a05000 	mov	r5, r0
   1126c:	e1a04001 	mov	r4, r1
   11270:	e5903010 	ldr	r3, [r0, #16]
   11274:	e3530000 	cmp	r3, #0
   11278:	e5913010 	ldr	r3, [r1, #16]
   1127c:	1280001c 	addne	r0, r0, #28
   11280:	0595001c 	ldreq	r0, [r5, #28]
   11284:	e3530000 	cmp	r3, #0
   11288:	1281101c 	addne	r1, r1, #28
   1128c:	0594101c 	ldreq	r1, [r4, #28]
   11290:	eb0050b6 	bl	25570 <strcmp>
   11294:	e3500000 	cmp	r0, #0
   11298:	18bd8070 	popne	{r4, r5, r6, pc}
   1129c:	e5941000 	ldr	r1, [r4]
   112a0:	e5950000 	ldr	r0, [r5]
   112a4:	eb0050b1 	bl	25570 <strcmp>
   112a8:	e3500000 	cmp	r0, #0
   112ac:	18bd8070 	popne	{r4, r5, r6, pc}
   112b0:	e5941008 	ldr	r1, [r4, #8]
   112b4:	e5950008 	ldr	r0, [r5, #8]
   112b8:	eb0050ac 	bl	25570 <strcmp>
   112bc:	e3500000 	cmp	r0, #0
   112c0:	05943004 	ldreq	r3, [r4, #4]
   112c4:	05950004 	ldreq	r0, [r5, #4]
   112c8:	00400003 	subeq	r0, r0, r3
   112cc:	e8bd8070 	pop	{r4, r5, r6, pc}

000112d0 <plural_lookup.isra.1>:
   112d0:	e92d41f0 	push	{r4, r5, r6, r7, r8, lr}
   112d4:	e1a06000 	mov	r6, r0
   112d8:	e5900060 	ldr	r0, [r0, #96]	; 0x60
   112dc:	e1a05003 	mov	r5, r3
   112e0:	e1a07002 	mov	r7, r2
   112e4:	ebffff6c 	bl	1109c <plural_eval>
   112e8:	e5963064 	ldr	r3, [r6, #100]	; 0x64
   112ec:	e1500003 	cmp	r0, r3
   112f0:	2a00000a 	bcs	11320 <plural_lookup.isra.1+0x50>
   112f4:	e1a04000 	mov	r4, r0
   112f8:	e3a06000 	mov	r6, #0
   112fc:	e1a00007 	mov	r0, r7
   11300:	e0875005 	add	r5, r7, r5
   11304:	e2544001 	subs	r4, r4, #1
   11308:	3a000006 	bcc	11328 <plural_lookup.isra.1+0x58>
   1130c:	e1a01006 	mov	r1, r6
   11310:	eb005635 	bl	26bec <__rawmemchr>
   11314:	e2800001 	add	r0, r0, #1
   11318:	e1500005 	cmp	r0, r5
   1131c:	3afffff8 	bcc	11304 <plural_lookup.isra.1+0x34>
   11320:	e1a00007 	mov	r0, r7
   11324:	e8bd81f0 	pop	{r4, r5, r6, r7, r8, pc}
   11328:	e1a07000 	mov	r7, r0
   1132c:	eafffffb 	b	11320 <plural_lookup.isra.1+0x50>

00011330 <_nl_find_msg>:
   11330:	e92d4ff0 	push	{r4, r5, r6, r7, r8, r9, sl, fp, lr}
   11334:	e28db020 	add	fp, sp, #32
   11338:	e24dd03c 	sub	sp, sp, #60	; 0x3c
   1133c:	e590c004 	ldr	ip, [r0, #4]
   11340:	e50b0048 	str	r0, [fp, #-72]	; 0xffffffb8
   11344:	e35c0000 	cmp	ip, #0
   11348:	e1a04002 	mov	r4, r2
   1134c:	e50b304c 	str	r3, [fp, #-76]	; 0xffffffb4
   11350:	e50b1050 	str	r1, [fp, #-80]	; 0xffffffb0
   11354:	da000138 	ble	1183c <_nl_find_msg+0x50c>
   11358:	e51b3048 	ldr	r3, [fp, #-72]	; 0xffffffb8
   1135c:	e5936008 	ldr	r6, [r3, #8]
   11360:	e3560000 	cmp	r6, #0
   11364:	0a0000c3 	beq	11678 <_nl_find_msg+0x348>
   11368:	e5968030 	ldr	r8, [r6, #48]	; 0x30
   1136c:	e5967014 	ldr	r7, [r6, #20]
   11370:	e3580000 	cmp	r8, #0
   11374:	0a00010a 	beq	117a4 <_nl_find_msg+0x474>
   11378:	e1a00004 	mov	r0, r4
   1137c:	eb00509b 	bl	255f0 <strlen>
   11380:	e50b0038 	str	r0, [fp, #-56]	; 0xffffffc8
   11384:	e1a00004 	mov	r0, r4
   11388:	eb0011b9 	bl	15a74 <__hash_string>
   1138c:	e596502c 	ldr	r5, [r6, #44]	; 0x2c
   11390:	e1a08000 	mov	r8, r0
   11394:	e1a01005 	mov	r1, r5
   11398:	eb0172a6 	bl	6de38 <__aeabi_uidivmod>
   1139c:	e1a00008 	mov	r0, r8
   113a0:	e1a09001 	mov	r9, r1
   113a4:	e2451002 	sub	r1, r5, #2
   113a8:	eb0172a2 	bl	6de38 <__aeabi_uidivmod>
   113ac:	e2813001 	add	r3, r1, #1
   113b0:	e0452003 	sub	r2, r5, r3
   113b4:	e50b3040 	str	r3, [fp, #-64]	; 0xffffffc0
   113b8:	e0433005 	sub	r3, r3, r5
   113bc:	e5968034 	ldr	r8, [r6, #52]	; 0x34
   113c0:	e596a030 	ldr	sl, [r6, #48]	; 0x30
   113c4:	e50b203c 	str	r2, [fp, #-60]	; 0xffffffc4
   113c8:	e50b3044 	str	r3, [fp, #-68]	; 0xffffffbc
   113cc:	ea00001c 	b	11444 <_nl_find_msg+0x114>
   113d0:	e596300c 	ldr	r3, [r6, #12]
   113d4:	e3530000 	cmp	r3, #0
   113d8:	0a000042 	beq	114e8 <_nl_find_msg+0x1b8>
   113dc:	e5962018 	ldr	r2, [r6, #24]
   113e0:	e7921185 	ldr	r1, [r2, r5, lsl #3]
   113e4:	e0822185 	add	r2, r2, r5, lsl #3
   113e8:	e0213861 	eor	r3, r1, r1, ror #16
   113ec:	e1a03423 	lsr	r3, r3, #8
   113f0:	e3c33cff 	bic	r3, r3, #65280	; 0xff00
   113f4:	e0233461 	eor	r3, r3, r1, ror #8
   113f8:	e51b1038 	ldr	r1, [fp, #-56]	; 0xffffffc8
   113fc:	e1510003 	cmp	r1, r3
   11400:	8a00000a 	bhi	11430 <_nl_find_msg+0x100>
   11404:	e5922004 	ldr	r2, [r2, #4]
   11408:	e5961000 	ldr	r1, [r6]
   1140c:	e0223862 	eor	r3, r2, r2, ror #16
   11410:	e1a03423 	lsr	r3, r3, #8
   11414:	e3c33cff 	bic	r3, r3, #65280	; 0xff00
   11418:	e0233462 	eor	r3, r3, r2, ror #8
   1141c:	e0811003 	add	r1, r1, r3
   11420:	e1a00004 	mov	r0, r4
   11424:	eb005051 	bl	25570 <strcmp>
   11428:	e3500000 	cmp	r0, #0
   1142c:	0a00001c 	beq	114a4 <_nl_find_msg+0x174>
   11430:	e51b303c 	ldr	r3, [fp, #-60]	; 0xffffffc4
   11434:	e1590003 	cmp	r9, r3
   11438:	251b3044 	ldrcs	r3, [fp, #-68]	; 0xffffffbc
   1143c:	351b3040 	ldrcc	r3, [fp, #-64]	; 0xffffffc0
   11440:	e0899003 	add	r9, r9, r3
   11444:	e3580000 	cmp	r8, #0
   11448:	179a3109 	ldrne	r3, [sl, r9, lsl #2]
   1144c:	079a5109 	ldreq	r5, [sl, r9, lsl #2]
   11450:	10235863 	eorne	r5, r3, r3, ror #16
   11454:	11a05425 	lsrne	r5, r5, #8
   11458:	13c55cff 	bicne	r5, r5, #65280	; 0xff00
   1145c:	10255463 	eorne	r5, r5, r3, ror #8
   11460:	e3550000 	cmp	r5, #0
   11464:	0a000083 	beq	11678 <_nl_find_msg+0x348>
   11468:	e2455001 	sub	r5, r5, #1
   1146c:	e1570005 	cmp	r7, r5
   11470:	8affffd6 	bhi	113d0 <_nl_find_msg+0xa0>
   11474:	e5963024 	ldr	r3, [r6, #36]	; 0x24
   11478:	e0452007 	sub	r2, r5, r7
   1147c:	e7931182 	ldr	r1, [r3, r2, lsl #3]
   11480:	e0833182 	add	r3, r3, r2, lsl #3
   11484:	e51b2038 	ldr	r2, [fp, #-56]	; 0xffffffc8
   11488:	e1520001 	cmp	r2, r1
   1148c:	2affffe7 	bcs	11430 <_nl_find_msg+0x100>
   11490:	e5931004 	ldr	r1, [r3, #4]
   11494:	e1a00004 	mov	r0, r4
   11498:	eb005034 	bl	25570 <strcmp>
   1149c:	e3500000 	cmp	r0, #0
   114a0:	1affffe2 	bne	11430 <_nl_find_msg+0x100>
   114a4:	e1550007 	cmp	r5, r7
   114a8:	3a000075 	bcc	11684 <_nl_find_msg+0x354>
   114ac:	e5963028 	ldr	r3, [r6, #40]	; 0x28
   114b0:	e0452007 	sub	r2, r5, r7
   114b4:	e0831182 	add	r1, r3, r2, lsl #3
   114b8:	e7933182 	ldr	r3, [r3, r2, lsl #3]
   114bc:	e591a004 	ldr	sl, [r1, #4]
   114c0:	e50b3038 	str	r3, [fp, #-56]	; 0xffffffc8
   114c4:	e51b304c 	ldr	r3, [fp, #-76]	; 0xffffffb4
   114c8:	e3530000 	cmp	r3, #0
   114cc:	1a000082 	bne	116dc <_nl_find_msg+0x3ac>
   114d0:	e1a0000a 	mov	r0, sl
   114d4:	e59b3004 	ldr	r3, [fp, #4]
   114d8:	e51b2038 	ldr	r2, [fp, #-56]	; 0xffffffc8
   114dc:	e5832000 	str	r2, [r3]
   114e0:	e24bd020 	sub	sp, fp, #32
   114e4:	e8bd8ff0 	pop	{r4, r5, r6, r7, r8, r9, sl, fp, pc}
   114e8:	e5963018 	ldr	r3, [r6, #24]
   114ec:	e51b1038 	ldr	r1, [fp, #-56]	; 0xffffffc8
   114f0:	e7932185 	ldr	r2, [r3, r5, lsl #3]
   114f4:	e0833185 	add	r3, r3, r5, lsl #3
   114f8:	e1510002 	cmp	r1, r2
   114fc:	8affffcb 	bhi	11430 <_nl_find_msg+0x100>
   11500:	e5933004 	ldr	r3, [r3, #4]
   11504:	e5961000 	ldr	r1, [r6]
   11508:	eaffffc3 	b	1141c <_nl_find_msg+0xec>
   1150c:	e3a09000 	mov	r9, #0
   11510:	e289300f 	add	r3, r9, #15
   11514:	e3c33007 	bic	r3, r3, #7
   11518:	e04dd003 	sub	sp, sp, r3
   1151c:	e28d3008 	add	r3, sp, #8
   11520:	e1a00003 	mov	r0, r3
   11524:	e1a02009 	mov	r2, r9
   11528:	e50b3040 	str	r3, [fp, #-64]	; 0xffffffc0
   1152c:	eb005507 	bl	26950 <memcpy>
   11530:	e3a01000 	mov	r1, #0
   11534:	e1a02004 	mov	r2, r4
   11538:	e7c01009 	strb	r1, [r0, r9]
   1153c:	e1a03004 	mov	r3, r4
   11540:	ea000002 	b	11550 <_nl_find_msg+0x220>
   11544:	e1a03000 	mov	r3, r0
   11548:	e35c002f 	cmp	ip, #47	; 0x2f
   1154c:	02811001 	addeq	r1, r1, #1
   11550:	e1a00003 	mov	r0, r3
   11554:	e4d0c001 	ldrb	ip, [r0], #1
   11558:	e35c0000 	cmp	ip, #0
   1155c:	1afffff8 	bne	11544 <_nl_find_msg+0x214>
   11560:	e0430004 	sub	r0, r3, r4
   11564:	e2800019 	add	r0, r0, #25
   11568:	e3c00007 	bic	r0, r0, #7
   1156c:	e5d43000 	ldrb	r3, [r4]
   11570:	e04dd000 	sub	sp, sp, r0
   11574:	e28d9008 	add	r9, sp, #8
   11578:	e3530000 	cmp	r3, #0
   1157c:	e1a00009 	mov	r0, r9
   11580:	0a000006 	beq	115a0 <_nl_find_msg+0x270>
   11584:	e59fc958 	ldr	ip, [pc, #2392]	; 11ee4 <_nl_find_msg+0xbb4>
   11588:	e59ce03c 	ldr	lr, [ip, #60]	; 0x3c
   1158c:	e79ec103 	ldr	ip, [lr, r3, lsl #2]
   11590:	e5f23001 	ldrb	r3, [r2, #1]!
   11594:	e4c0c001 	strb	ip, [r0], #1
   11598:	e3530000 	cmp	r3, #0
   1159c:	1afffffa 	bne	1158c <_nl_find_msg+0x25c>
   115a0:	e3510001 	cmp	r1, #1
   115a4:	9a000237 	bls	11e88 <_nl_find_msg+0xb58>
   115a8:	e3a03000 	mov	r3, #0
   115ac:	e51b2040 	ldr	r2, [fp, #-64]	; 0xffffffc0
   115b0:	e5c03000 	strb	r3, [r0]
   115b4:	e1a0c002 	mov	ip, r2
   115b8:	e1a00003 	mov	r0, r3
   115bc:	e1a03002 	mov	r3, r2
   115c0:	ea000002 	b	115d0 <_nl_find_msg+0x2a0>
   115c4:	e1a03002 	mov	r3, r2
   115c8:	e351002f 	cmp	r1, #47	; 0x2f
   115cc:	02800001 	addeq	r0, r0, #1
   115d0:	e1a02003 	mov	r2, r3
   115d4:	e4d21001 	ldrb	r1, [r2], #1
   115d8:	e3510000 	cmp	r1, #0
   115dc:	1afffff8 	bne	115c4 <_nl_find_msg+0x294>
   115e0:	e51b2040 	ldr	r2, [fp, #-64]	; 0xffffffc0
   115e4:	e0433002 	sub	r3, r3, r2
   115e8:	e2833011 	add	r3, r3, #17
   115ec:	e3c33007 	bic	r3, r3, #7
   115f0:	e5d22000 	ldrb	r2, [r2]
   115f4:	e04dd003 	sub	sp, sp, r3
   115f8:	e28d1008 	add	r1, sp, #8
   115fc:	e3520000 	cmp	r2, #0
   11600:	e1a03001 	mov	r3, r1
   11604:	0a000008 	beq	1162c <_nl_find_msg+0x2fc>
   11608:	e59fe8d4 	ldr	lr, [pc, #2260]	; 11ee4 <_nl_find_msg+0xbb4>
   1160c:	e59ee03c 	ldr	lr, [lr, #60]	; 0x3c
   11610:	e50be040 	str	lr, [fp, #-64]	; 0xffffffc0
   11614:	e51be040 	ldr	lr, [fp, #-64]	; 0xffffffc0
   11618:	e79ee102 	ldr	lr, [lr, r2, lsl #2]
   1161c:	e5fc2001 	ldrb	r2, [ip, #1]!
   11620:	e4c3e001 	strb	lr, [r3], #1
   11624:	e3520000 	cmp	r2, #0
   11628:	1afffff9 	bne	11614 <_nl_find_msg+0x2e4>
   1162c:	e3500001 	cmp	r0, #1
   11630:	9a00020c 	bls	11e68 <_nl_find_msg+0xb38>
   11634:	e3a02000 	mov	r2, #0
   11638:	e1a00009 	mov	r0, r9
   1163c:	e5c32000 	strb	r2, [r3]
   11640:	e3a03001 	mov	r3, #1
   11644:	e2882004 	add	r2, r8, #4
   11648:	eb0067dd 	bl	2b5c4 <__gconv_open>
   1164c:	e3500000 	cmp	r0, #0
   11650:	0a0001c9 	beq	11d7c <_nl_find_msg+0xa4c>
   11654:	e3700001 	cmn	r0, #1
   11658:	0a0001c6 	beq	11d78 <_nl_find_msg+0xa48>
   1165c:	e51b303c 	ldr	r3, [fp, #-60]	; 0xffffffc4
   11660:	e3530000 	cmp	r3, #0
   11664:	0a000001 	beq	11670 <_nl_find_msg+0x340>
   11668:	e2860040 	add	r0, r6, #64	; 0x40
   1166c:	e1a00000 	nop			; (mov r0, r0)
   11670:	e1a00004 	mov	r0, r4
   11674:	eb004770 	bl	2343c <__cfree>
   11678:	e3a00000 	mov	r0, #0
   1167c:	e24bd020 	sub	sp, fp, #32
   11680:	e8bd8ff0 	pop	{r4, r5, r6, r7, r8, r9, sl, fp, pc}
   11684:	e596300c 	ldr	r3, [r6, #12]
   11688:	e5960000 	ldr	r0, [r6]
   1168c:	e3530000 	cmp	r3, #0
   11690:	e596301c 	ldr	r3, [r6, #28]
   11694:	e0832185 	add	r2, r3, r5, lsl #3
   11698:	0a000061 	beq	11824 <_nl_find_msg+0x4f4>
   1169c:	e7931185 	ldr	r1, [r3, r5, lsl #3]
   116a0:	e592c004 	ldr	ip, [r2, #4]
   116a4:	e0213861 	eor	r3, r1, r1, ror #16
   116a8:	e1a03423 	lsr	r3, r3, #8
   116ac:	e3c33cff 	bic	r3, r3, #65280	; 0xff00
   116b0:	e0233461 	eor	r3, r3, r1, ror #8
   116b4:	e2833001 	add	r3, r3, #1
   116b8:	e02c286c 	eor	r2, ip, ip, ror #16
   116bc:	e1a02422 	lsr	r2, r2, #8
   116c0:	e50b3038 	str	r3, [fp, #-56]	; 0xffffffc8
   116c4:	e51b304c 	ldr	r3, [fp, #-76]	; 0xffffffb4
   116c8:	e3c22cff 	bic	r2, r2, #65280	; 0xff00
   116cc:	e022246c 	eor	r2, r2, ip, ror #8
   116d0:	e3530000 	cmp	r3, #0
   116d4:	e080a002 	add	sl, r0, r2
   116d8:	0affff7c 	beq	114d0 <_nl_find_msg+0x1a0>
   116dc:	e51b3050 	ldr	r3, [fp, #-80]	; 0xffffffb0
   116e0:	e3530000 	cmp	r3, #0
   116e4:	0a00007f 	beq	118e8 <_nl_find_msg+0x5b8>
   116e8:	e5934008 	ldr	r4, [r3, #8]
   116ec:	e3540000 	cmp	r4, #0
   116f0:	0a00007c 	beq	118e8 <_nl_find_msg+0x5b8>
   116f4:	e59f37ec 	ldr	r3, [pc, #2028]	; 11ee8 <_nl_find_msg+0xbb8>
   116f8:	e3530000 	cmp	r3, #0
   116fc:	0a000001 	beq	11708 <_nl_find_msg+0x3d8>
   11700:	e2860040 	add	r0, r6, #64	; 0x40
   11704:	e1a00000 	nop			; (mov r0, r0)
   11708:	e596903c 	ldr	r9, [r6, #60]	; 0x3c
   1170c:	e3590000 	cmp	r9, #0
   11710:	0a00004e 	beq	11850 <_nl_find_msg+0x520>
   11714:	e5968038 	ldr	r8, [r6, #56]	; 0x38
   11718:	e0893089 	add	r3, r9, r9, lsl #1
   1171c:	e0888103 	add	r8, r8, r3, lsl #2
   11720:	ea000001 	b	1172c <_nl_find_msg+0x3fc>
   11724:	e3590000 	cmp	r9, #0
   11728:	0a000048 	beq	11850 <_nl_find_msg+0x520>
   1172c:	e518000c 	ldr	r0, [r8, #-12]
   11730:	e1a01004 	mov	r1, r4
   11734:	eb004f8d 	bl	25570 <strcmp>
   11738:	e3500000 	cmp	r0, #0
   1173c:	e248800c 	sub	r8, r8, #12
   11740:	e2499001 	sub	r9, r9, #1
   11744:	1afffff6 	bne	11724 <_nl_find_msg+0x3f4>
   11748:	e59f379c 	ldr	r3, [pc, #1948]	; 11eec <_nl_find_msg+0xbbc>
   1174c:	e3530000 	cmp	r3, #0
   11750:	e50b303c 	str	r3, [fp, #-60]	; 0xffffffc4
   11754:	0a000001 	beq	11760 <_nl_find_msg+0x430>
   11758:	e2860040 	add	r0, r6, #64	; 0x40
   1175c:	e1a00000 	nop			; (mov r0, r0)
   11760:	e3580000 	cmp	r8, #0
   11764:	0a00003e 	beq	11864 <_nl_find_msg+0x534>
   11768:	e5983004 	ldr	r3, [r8, #4]
   1176c:	e3730001 	cmn	r3, #1
   11770:	0affff56 	beq	114d0 <_nl_find_msg+0x1a0>
   11774:	e5984008 	ldr	r4, [r8, #8]
   11778:	e3540000 	cmp	r4, #0
   1177c:	0a000067 	beq	11920 <_nl_find_msg+0x5f0>
   11780:	e3740001 	cmn	r4, #1
   11784:	0a0000fd 	beq	11b80 <_nl_find_msg+0x850>
   11788:	e7944105 	ldr	r4, [r4, r5, lsl #2]
   1178c:	e3540000 	cmp	r4, #0
   11790:	0a00008d 	beq	119cc <_nl_find_msg+0x69c>
   11794:	e5943000 	ldr	r3, [r4]
   11798:	e284a004 	add	sl, r4, #4
   1179c:	e50b3038 	str	r3, [fp, #-56]	; 0xffffffc8
   117a0:	eaffff4a 	b	114d0 <_nl_find_msg+0x1a0>
   117a4:	e1a09007 	mov	r9, r7
   117a8:	e50b703c 	str	r7, [fp, #-60]	; 0xffffffc4
   117ac:	e50b4038 	str	r4, [fp, #-56]	; 0xffffffc8
   117b0:	e1a07006 	mov	r7, r6
   117b4:	ea000001 	b	117c0 <_nl_find_msg+0x490>
   117b8:	0a000021 	beq	11844 <_nl_find_msg+0x514>
   117bc:	e2858001 	add	r8, r5, #1
   117c0:	e1580009 	cmp	r8, r9
   117c4:	2affffab 	bcs	11678 <_nl_find_msg+0x348>
   117c8:	e5974000 	ldr	r4, [r7]
   117cc:	e597a00c 	ldr	sl, [r7, #12]
   117d0:	e5976018 	ldr	r6, [r7, #24]
   117d4:	e0885009 	add	r5, r8, r9
   117d8:	e1a050a5 	lsr	r5, r5, #1
   117dc:	e35a0000 	cmp	sl, #0
   117e0:	e0863185 	add	r3, r6, r5, lsl #3
   117e4:	15933004 	ldrne	r3, [r3, #4]
   117e8:	00863185 	addeq	r3, r6, r5, lsl #3
   117ec:	10231863 	eorne	r1, r3, r3, ror #16
   117f0:	11a01421 	lsrne	r1, r1, #8
   117f4:	13c11cff 	bicne	r1, r1, #65280	; 0xff00
   117f8:	05931004 	ldreq	r1, [r3, #4]
   117fc:	10211463 	eorne	r1, r1, r3, ror #8
   11800:	e0841001 	add	r1, r4, r1
   11804:	e51b0038 	ldr	r0, [fp, #-56]	; 0xffffffc8
   11808:	eb004f58 	bl	25570 <strcmp>
   1180c:	e3500000 	cmp	r0, #0
   11810:	aaffffe8 	bge	117b8 <_nl_find_msg+0x488>
   11814:	e1580005 	cmp	r8, r5
   11818:	e1a09005 	mov	r9, r5
   1181c:	3affffec 	bcc	117d4 <_nl_find_msg+0x4a4>
   11820:	eaffff94 	b	11678 <_nl_find_msg+0x348>
   11824:	e7933185 	ldr	r3, [r3, r5, lsl #3]
   11828:	e5922004 	ldr	r2, [r2, #4]
   1182c:	e2833001 	add	r3, r3, #1
   11830:	e080a002 	add	sl, r0, r2
   11834:	e50b3038 	str	r3, [fp, #-56]	; 0xffffffc8
   11838:	eaffff21 	b	114c4 <_nl_find_msg+0x194>
   1183c:	eb00045f 	bl	129c0 <_nl_load_domain>
   11840:	eafffec4 	b	11358 <_nl_find_msg+0x28>
   11844:	e1a06007 	mov	r6, r7
   11848:	e51b703c 	ldr	r7, [fp, #-60]	; 0xffffffc4
   1184c:	eaffff14 	b	114a4 <_nl_find_msg+0x174>
   11850:	e59f3694 	ldr	r3, [pc, #1684]	; 11eec <_nl_find_msg+0xbbc>
   11854:	e3530000 	cmp	r3, #0
   11858:	e50b303c 	str	r3, [fp, #-60]	; 0xffffffc4
   1185c:	13a08000 	movne	r8, #0
   11860:	1affffbc 	bne	11758 <_nl_find_msg+0x428>
   11864:	e59f3684 	ldr	r3, [pc, #1668]	; 11ef0 <_nl_find_msg+0xbc0>
   11868:	e3530000 	cmp	r3, #0
   1186c:	0a000001 	beq	11878 <_nl_find_msg+0x548>
   11870:	e2860040 	add	r0, r6, #64	; 0x40
   11874:	e1a00000 	nop			; (mov r0, r0)
   11878:	e596303c 	ldr	r3, [r6, #60]	; 0x3c
   1187c:	e3530000 	cmp	r3, #0
   11880:	e50b3040 	str	r3, [fp, #-64]	; 0xffffffc0
   11884:	05963038 	ldreq	r3, [r6, #56]	; 0x38
   11888:	050b3044 	streq	r3, [fp, #-68]	; 0xffffffbc
   1188c:	0a0000c8 	beq	11bb4 <_nl_find_msg+0x884>
   11890:	e51b2040 	ldr	r2, [fp, #-64]	; 0xffffffc0
   11894:	e5963038 	ldr	r3, [r6, #56]	; 0x38
   11898:	e0828082 	add	r8, r2, r2, lsl #1
   1189c:	e1a09002 	mov	r9, r2
   118a0:	e50b3044 	str	r3, [fp, #-68]	; 0xffffffbc
   118a4:	e0838108 	add	r8, r3, r8, lsl #2
   118a8:	ea000001 	b	118b4 <_nl_find_msg+0x584>
   118ac:	e3590000 	cmp	r9, #0
   118b0:	0a0000bf 	beq	11bb4 <_nl_find_msg+0x884>
   118b4:	e518000c 	ldr	r0, [r8, #-12]
   118b8:	e1a01004 	mov	r1, r4
   118bc:	eb004f2b 	bl	25570 <strcmp>
   118c0:	e3500000 	cmp	r0, #0
   118c4:	e248800c 	sub	r8, r8, #12
   118c8:	e2499001 	sub	r9, r9, #1
   118cc:	1afffff6 	bne	118ac <_nl_find_msg+0x57c>
   118d0:	e51b303c 	ldr	r3, [fp, #-60]	; 0xffffffc4
   118d4:	e3530000 	cmp	r3, #0
   118d8:	0affffa2 	beq	11768 <_nl_find_msg+0x438>
   118dc:	e2860040 	add	r0, r6, #64	; 0x40
   118e0:	e1a00000 	nop			; (mov r0, r0)
   118e4:	eaffff9f 	b	11768 <_nl_find_msg+0x438>
   118e8:	e59f9604 	ldr	r9, [pc, #1540]	; 11ef4 <_nl_find_msg+0xbc4>
   118ec:	e5993008 	ldr	r3, [r9, #8]
   118f0:	e3530000 	cmp	r3, #0
   118f4:	0a0000a3 	beq	11b88 <_nl_find_msg+0x858>
   118f8:	e599400c 	ldr	r4, [r9, #12]
   118fc:	e3540000 	cmp	r4, #0
   11900:	1affff7b 	bne	116f4 <_nl_find_msg+0x3c4>
   11904:	ebfffd61 	bl	10e90 <__aeabi_read_tp>
   11908:	e59f35e8 	ldr	r3, [pc, #1512]	; 11ef8 <_nl_find_msg+0xbc8>
   1190c:	e79f3003 	ldr	r3, [pc, r3]
   11910:	e7903003 	ldr	r3, [r0, r3]
   11914:	e5933000 	ldr	r3, [r3]
   11918:	e593405c 	ldr	r4, [r3, #92]	; 0x5c
   1191c:	eaffff74 	b	116f4 <_nl_find_msg+0x3c4>
   11920:	e3a01001 	mov	r1, #1
   11924:	e59f25d0 	ldr	r2, [pc, #1488]	; 11efc <_nl_find_msg+0xbcc>
   11928:	e5923000 	ldr	r3, [r2]
   1192c:	e1530004 	cmp	r3, r4
   11930:	1a000005 	bne	1194c <_nl_find_msg+0x61c>
   11934:	e1a00004 	mov	r0, r4
   11938:	e3e03a0f 	mvn	r3, #61440	; 0xf000
   1193c:	e1a0e00f 	mov	lr, pc
   11940:	e243f03f 	sub	pc, r3, #63	; 0x3f
   11944:	3afffff7 	bcc	11928 <_nl_find_msg+0x5f8>
   11948:	e1a03004 	mov	r3, r4
   1194c:	e3530000 	cmp	r3, #0
   11950:	1a0000da 	bne	11cc0 <_nl_find_msg+0x990>
   11954:	e5983008 	ldr	r3, [r8, #8]
   11958:	e3530000 	cmp	r3, #0
   1195c:	0a000156 	beq	11ebc <_nl_find_msg+0xb8c>
   11960:	e59f958c 	ldr	r9, [pc, #1420]	; 11ef4 <_nl_find_msg+0xbc4>
   11964:	e2897010 	add	r7, r9, #16
   11968:	e5996010 	ldr	r6, [r9, #16]
   1196c:	e3a01000 	mov	r1, #0
   11970:	e1a04006 	mov	r4, r6
   11974:	e1a02007 	mov	r2, r7
   11978:	e5923000 	ldr	r3, [r2]
   1197c:	e1530004 	cmp	r3, r4
   11980:	1a000005 	bne	1199c <_nl_find_msg+0x66c>
   11984:	e1a00004 	mov	r0, r4
   11988:	e3e03a0f 	mvn	r3, #61440	; 0xf000
   1198c:	e1a0e00f 	mov	lr, pc
   11990:	e243f03f 	sub	pc, r3, #63	; 0x3f
   11994:	3afffff7 	bcc	11978 <_nl_find_msg+0x648>
   11998:	e1a03004 	mov	r3, r4
   1199c:	e1560003 	cmp	r6, r3
   119a0:	1afffff0 	bne	11968 <_nl_find_msg+0x638>
   119a4:	e3560001 	cmp	r6, #1
   119a8:	da000005 	ble	119c4 <_nl_find_msg+0x694>
   119ac:	e1a00007 	mov	r0, r7
   119b0:	e3a01081 	mov	r1, #129	; 0x81
   119b4:	e3a02001 	mov	r2, #1
   119b8:	e3a03000 	mov	r3, #0
   119bc:	e3a070f0 	mov	r7, #240	; 0xf0
   119c0:	ef000000 	svc	0x00000000
   119c4:	e5984008 	ldr	r4, [r8, #8]
   119c8:	eaffff6c 	b	11780 <_nl_find_msg+0x450>
   119cc:	e3a01001 	mov	r1, #1
   119d0:	e59f2524 	ldr	r2, [pc, #1316]	; 11efc <_nl_find_msg+0xbcc>
   119d4:	e5923000 	ldr	r3, [r2]
   119d8:	e1530004 	cmp	r3, r4
   119dc:	1a000005 	bne	119f8 <_nl_find_msg+0x6c8>
   119e0:	e1a00004 	mov	r0, r4
   119e4:	e3e03a0f 	mvn	r3, #61440	; 0xf000
   119e8:	e1a0e00f 	mov	lr, pc
   119ec:	e243f03f 	sub	pc, r3, #63	; 0x3f
   119f0:	3afffff7 	bcc	119d4 <_nl_find_msg+0x6a4>
   119f4:	e1a03004 	mov	r3, r4
   119f8:	e3530000 	cmp	r3, #0
   119fc:	1a0000b2 	bne	11ccc <_nl_find_msg+0x99c>
   11a00:	e24b3024 	sub	r3, fp, #36	; 0x24
   11a04:	e1a01003 	mov	r1, r3
   11a08:	e59f94e4 	ldr	r9, [pc, #1252]	; 11ef4 <_nl_find_msg+0xbc4>
   11a0c:	e3a04000 	mov	r4, #0
   11a10:	e5992014 	ldr	r2, [r9, #20]
   11a14:	e5993018 	ldr	r3, [r9, #24]
   11a18:	e2822004 	add	r2, r2, #4
   11a1c:	e5212008 	str	r2, [r1, #-8]!
   11a20:	e50ba030 	str	sl, [fp, #-48]	; 0xffffffd0
   11a24:	e50b103c 	str	r1, [fp, #-60]	; 0xffffffc4
   11a28:	e50b5040 	str	r5, [fp, #-64]	; 0xffffffc0
   11a2c:	e51b6038 	ldr	r6, [fp, #-56]	; 0xffffffc8
   11a30:	ea000012 	b	11a80 <_nl_find_msg+0x750>
   11a34:	e3540000 	cmp	r4, #0
   11a38:	e2844001 	add	r4, r4, #1
   11a3c:	e0643404 	rsb	r3, r4, r4, lsl #8
   11a40:	e1a05203 	lsl	r5, r3, #4
   11a44:	0a000021 	beq	11ad0 <_nl_find_msg+0x7a0>
   11a48:	e5997004 	ldr	r7, [r9, #4]
   11a4c:	e1a01005 	mov	r1, r5
   11a50:	e1a00007 	mov	r0, r7
   11a54:	e5895018 	str	r5, [r9, #24]
   11a58:	eb0046a1 	bl	234e4 <__libc_realloc>
   11a5c:	e3500000 	cmp	r0, #0
   11a60:	0a000025 	beq	11afc <_nl_find_msg+0x7cc>
   11a64:	e5890004 	str	r0, [r9, #4]
   11a68:	e2453004 	sub	r3, r5, #4
   11a6c:	e2802004 	add	r2, r0, #4
   11a70:	e2800008 	add	r0, r0, #8
   11a74:	e5893018 	str	r3, [r9, #24]
   11a78:	e5892014 	str	r2, [r9, #20]
   11a7c:	e50b002c 	str	r0, [fp, #-44]	; 0xffffffd4
   11a80:	e3530003 	cmp	r3, #3
   11a84:	9affffea 	bls	11a34 <_nl_find_msg+0x704>
   11a88:	e51b102c 	ldr	r1, [fp, #-44]	; 0xffffffd4
   11a8c:	e2433004 	sub	r3, r3, #4
   11a90:	e0813003 	add	r3, r1, r3
   11a94:	e51b2030 	ldr	r2, [fp, #-48]	; 0xffffffd0
   11a98:	e5980004 	ldr	r0, [r8, #4]
   11a9c:	e58d3000 	str	r3, [sp]
   11aa0:	e24b3028 	sub	r3, fp, #40	; 0x28
   11aa4:	e58d3004 	str	r3, [sp, #4]
   11aa8:	e0822006 	add	r2, r2, r6
   11aac:	e51b303c 	ldr	r3, [fp, #-60]	; 0xffffffc4
   11ab0:	e24b1030 	sub	r1, fp, #48	; 0x30
   11ab4:	eb006809 	bl	2bae0 <__gconv>
   11ab8:	e3d03004 	bics	r3, r0, #4
   11abc:	0a0000b4 	beq	11d94 <_nl_find_msg+0xa64>
   11ac0:	e3500005 	cmp	r0, #5
   11ac4:	1a000090 	bne	11d0c <_nl_find_msg+0x9dc>
   11ac8:	e50ba030 	str	sl, [fp, #-48]	; 0xffffffd0
   11acc:	eaffffd8 	b	11a34 <_nl_find_msg+0x704>
   11ad0:	e3a00eff 	mov	r0, #4080	; 0xff0
   11ad4:	e5890018 	str	r0, [r9, #24]
   11ad8:	eb004476 	bl	22cb8 <__libc_malloc>
   11adc:	e3500000 	cmp	r0, #0
   11ae0:	0a000009 	beq	11b0c <_nl_find_msg+0x7dc>
   11ae4:	e5992004 	ldr	r2, [r9, #4]
   11ae8:	e59f3410 	ldr	r3, [pc, #1040]	; 11f00 <_nl_find_msg+0xbd0>
   11aec:	e5802000 	str	r2, [r0]
   11af0:	e5890004 	str	r0, [r9, #4]
   11af4:	e3a04001 	mov	r4, #1
   11af8:	eaffffdb 	b	11a6c <_nl_find_msg+0x73c>
   11afc:	e5973000 	ldr	r3, [r7]
   11b00:	e1a00007 	mov	r0, r7
   11b04:	e5893004 	str	r3, [r9, #4]
   11b08:	eb00464b 	bl	2343c <__cfree>
   11b0c:	e3a06000 	mov	r6, #0
   11b10:	e59f73e4 	ldr	r7, [pc, #996]	; 11efc <_nl_find_msg+0xbcc>
   11b14:	e5896014 	str	r6, [r9, #20]
   11b18:	e5896018 	str	r6, [r9, #24]
   11b1c:	e5995010 	ldr	r5, [r9, #16]
   11b20:	e1a01006 	mov	r1, r6
   11b24:	e1a04005 	mov	r4, r5
   11b28:	e1a02007 	mov	r2, r7
   11b2c:	e5923000 	ldr	r3, [r2]
   11b30:	e1530004 	cmp	r3, r4
   11b34:	1a000005 	bne	11b50 <_nl_find_msg+0x820>
   11b38:	e1a00004 	mov	r0, r4
   11b3c:	e3e03a0f 	mvn	r3, #61440	; 0xf000
   11b40:	e1a0e00f 	mov	lr, pc
   11b44:	e243f03f 	sub	pc, r3, #63	; 0x3f
   11b48:	3afffff7 	bcc	11b2c <_nl_find_msg+0x7fc>
   11b4c:	e1a03004 	mov	r3, r4
   11b50:	e1550003 	cmp	r5, r3
   11b54:	1afffff0 	bne	11b1c <_nl_find_msg+0x7ec>
   11b58:	e3550001 	cmp	r5, #1
   11b5c:	da000007 	ble	11b80 <_nl_find_msg+0x850>
   11b60:	e1a00007 	mov	r0, r7
   11b64:	e3a01081 	mov	r1, #129	; 0x81
   11b68:	e3a02001 	mov	r2, #1
   11b6c:	e3a03000 	mov	r3, #0
   11b70:	e3a070f0 	mov	r7, #240	; 0xf0
   11b74:	ef000000 	svc	0x00000000
   11b78:	e3e00000 	mvn	r0, #0
   11b7c:	eafffebe 	b	1167c <_nl_find_msg+0x34c>
   11b80:	e3e00000 	mvn	r0, #0
   11b84:	eafffebc 	b	1167c <_nl_find_msg+0x34c>
   11b88:	e59f0374 	ldr	r0, [pc, #884]	; 11f04 <_nl_find_msg+0xbd4>
   11b8c:	eb0011d7 	bl	162f0 <getenv>
   11b90:	e2504000 	subs	r4, r0, #0
   11b94:	0a000002 	beq	11ba4 <_nl_find_msg+0x874>
   11b98:	e5d43000 	ldrb	r3, [r4]
   11b9c:	e3530000 	cmp	r3, #0
   11ba0:	1a00004c 	bne	11cd8 <_nl_find_msg+0x9a8>
   11ba4:	e599400c 	ldr	r4, [r9, #12]
   11ba8:	e3a03001 	mov	r3, #1
   11bac:	e5893008 	str	r3, [r9, #8]
   11bb0:	eaffff51 	b	118fc <_nl_find_msg+0x5cc>
   11bb4:	e51b3044 	ldr	r3, [fp, #-68]	; 0xffffffbc
   11bb8:	e3530000 	cmp	r3, #0
   11bbc:	0a0000a2 	beq	11e4c <_nl_find_msg+0xb1c>
   11bc0:	e51b2040 	ldr	r2, [fp, #-64]	; 0xffffffc0
   11bc4:	e1a00003 	mov	r0, r3
   11bc8:	e2821001 	add	r1, r2, #1
   11bcc:	e0811081 	add	r1, r1, r1, lsl #1
   11bd0:	e1a01101 	lsl	r1, r1, #2
   11bd4:	eb004642 	bl	234e4 <__libc_realloc>
   11bd8:	e1a01000 	mov	r1, r0
   11bdc:	e3510000 	cmp	r1, #0
   11be0:	0a00002f 	beq	11ca4 <_nl_find_msg+0x974>
   11be4:	e1a00004 	mov	r0, r4
   11be8:	e5861038 	str	r1, [r6, #56]	; 0x38
   11bec:	e50b1044 	str	r1, [fp, #-68]	; 0xffffffbc
   11bf0:	eb004e72 	bl	255c0 <__strdup>
   11bf4:	e2504000 	subs	r4, r0, #0
   11bf8:	0a000029 	beq	11ca4 <_nl_find_msg+0x974>
   11bfc:	e3e02000 	mvn	r2, #0
   11c00:	e51b3040 	ldr	r3, [fp, #-64]	; 0xffffffc0
   11c04:	e51b1044 	ldr	r1, [fp, #-68]	; 0xffffffbc
   11c08:	e0839083 	add	r9, r3, r3, lsl #1
   11c0c:	e1a03109 	lsl	r3, r9, #2
   11c10:	e0818003 	add	r8, r1, r3
   11c14:	e24bc028 	sub	ip, fp, #40	; 0x28
   11c18:	e7814003 	str	r4, [r1, r3]
   11c1c:	e51b0048 	ldr	r0, [fp, #-72]	; 0xffffffb8
   11c20:	e5882004 	str	r2, [r8, #4]
   11c24:	e3a03000 	mov	r3, #0
   11c28:	e51b1050 	ldr	r1, [fp, #-80]	; 0xffffffb0
   11c2c:	e58dc000 	str	ip, [sp]
   11c30:	e59f22d0 	ldr	r2, [pc, #720]	; 11f08 <_nl_find_msg+0xbd8>
   11c34:	ebfffdbd 	bl	11330 <_nl_find_msg>
   11c38:	e3700001 	cmn	r0, #1
   11c3c:	e1a03000 	mov	r3, r0
   11c40:	0a00004a 	beq	11d70 <_nl_find_msg+0xa40>
   11c44:	e3500000 	cmp	r0, #0
   11c48:	0a00004b 	beq	11d7c <_nl_find_msg+0xa4c>
   11c4c:	e59f12b8 	ldr	r1, [pc, #696]	; 11f0c <_nl_find_msg+0xbdc>
   11c50:	eb005001 	bl	25c5c <strstr>
   11c54:	e3500000 	cmp	r0, #0
   11c58:	0a000047 	beq	11d7c <_nl_find_msg+0xa4c>
   11c5c:	e5d03008 	ldrb	r3, [r0, #8]
   11c60:	e2801008 	add	r1, r0, #8
   11c64:	e21390df 	ands	r9, r3, #223	; 0xdf
   11c68:	0afffe28 	beq	11510 <_nl_find_msg+0x1e0>
   11c6c:	e2433009 	sub	r3, r3, #9
   11c70:	e3530001 	cmp	r3, #1
   11c74:	9afffe24 	bls	1150c <_nl_find_msg+0x1dc>
   11c78:	e1a02001 	mov	r2, r1
   11c7c:	e3a09000 	mov	r9, #0
   11c80:	ea000001 	b	11c8c <_nl_find_msg+0x95c>
   11c84:	e3500001 	cmp	r0, #1
   11c88:	9afffe20 	bls	11510 <_nl_find_msg+0x1e0>
   11c8c:	e5f23001 	ldrb	r3, [r2, #1]!
   11c90:	e2899001 	add	r9, r9, #1
   11c94:	e31300df 	tst	r3, #223	; 0xdf
   11c98:	e2430009 	sub	r0, r3, #9
   11c9c:	1afffff8 	bne	11c84 <_nl_find_msg+0x954>
   11ca0:	eafffe1a 	b	11510 <_nl_find_msg+0x1e0>
   11ca4:	e51b303c 	ldr	r3, [fp, #-60]	; 0xffffffc4
   11ca8:	e3530000 	cmp	r3, #0
   11cac:	0affffb3 	beq	11b80 <_nl_find_msg+0x850>
   11cb0:	e2860040 	add	r0, r6, #64	; 0x40
   11cb4:	e1a00000 	nop			; (mov r0, r0)
   11cb8:	e3e00000 	mvn	r0, #0
   11cbc:	eafffe6e 	b	1167c <_nl_find_msg+0x34c>
   11cc0:	e1a00002 	mov	r0, r2
   11cc4:	eb005f90 	bl	29b0c <__lll_lock_wait_private>
   11cc8:	eaffff21 	b	11954 <_nl_find_msg+0x624>
   11ccc:	e1a00002 	mov	r0, r2
   11cd0:	eb005f8d 	bl	29b0c <__lll_lock_wait_private>
   11cd4:	eaffff49 	b	11a00 <_nl_find_msg+0x6d0>
   11cd8:	eb004e44 	bl	255f0 <strlen>
   11cdc:	e2802001 	add	r2, r0, #1
   11ce0:	e1a00002 	mov	r0, r2
   11ce4:	e50b203c 	str	r2, [fp, #-60]	; 0xffffffc4
   11ce8:	eb0043f2 	bl	22cb8 <__libc_malloc>
   11cec:	e2508000 	subs	r8, r0, #0
   11cf0:	0a000002 	beq	11d00 <_nl_find_msg+0x9d0>
   11cf4:	e51b203c 	ldr	r2, [fp, #-60]	; 0xffffffc4
   11cf8:	e1a01004 	mov	r1, r4
   11cfc:	eb005313 	bl	26950 <memcpy>
   11d00:	e1a04008 	mov	r4, r8
   11d04:	e589800c 	str	r8, [r9, #12]
   11d08:	eaffffa6 	b	11ba8 <_nl_find_msg+0x878>
   11d0c:	e3a05000 	mov	r5, #0
   11d10:	e59f71e4 	ldr	r7, [pc, #484]	; 11efc <_nl_find_msg+0xbcc>
   11d14:	e5996010 	ldr	r6, [r9, #16]
   11d18:	e1a01005 	mov	r1, r5
   11d1c:	e1a04006 	mov	r4, r6
   11d20:	e1a02007 	mov	r2, r7
   11d24:	e5923000 	ldr	r3, [r2]
   11d28:	e1530004 	cmp	r3, r4
   11d2c:	1a000005 	bne	11d48 <_nl_find_msg+0xa18>
   11d30:	e1a00004 	mov	r0, r4
   11d34:	e3e03a0f 	mvn	r3, #61440	; 0xf000
   11d38:	e1a0e00f 	mov	lr, pc
   11d3c:	e243f03f 	sub	pc, r3, #63	; 0x3f
   11d40:	3afffff7 	bcc	11d24 <_nl_find_msg+0x9f4>
   11d44:	e1a03004 	mov	r3, r4
   11d48:	e1560003 	cmp	r6, r3
   11d4c:	1afffff0 	bne	11d14 <_nl_find_msg+0x9e4>
   11d50:	e3560001 	cmp	r6, #1
   11d54:	dafffe47 	ble	11678 <_nl_find_msg+0x348>
   11d58:	e1a00007 	mov	r0, r7
   11d5c:	e3a01081 	mov	r1, #129	; 0x81
   11d60:	e3a02001 	mov	r2, #1
   11d64:	e3a03000 	mov	r3, #0
   11d68:	e3a070f0 	mov	r7, #240	; 0xf0
   11d6c:	ef000000 	svc	0x00000000
   11d70:	e1a00003 	mov	r0, r3
   11d74:	eafffe40 	b	1167c <_nl_find_msg+0x34c>
   11d78:	e5880004 	str	r0, [r8, #4]
   11d7c:	e3a02000 	mov	r2, #0
   11d80:	e596303c 	ldr	r3, [r6, #60]	; 0x3c
   11d84:	e5882008 	str	r2, [r8, #8]
   11d88:	e2833001 	add	r3, r3, #1
   11d8c:	e586303c 	str	r3, [r6, #60]	; 0x3c
   11d90:	eafffece 	b	118d0 <_nl_find_msg+0x5a0>
   11d94:	e1a07003 	mov	r7, r3
   11d98:	e5991014 	ldr	r1, [r9, #20]
   11d9c:	e51b202c 	ldr	r2, [fp, #-44]	; 0xffffffd4
   11da0:	e5980008 	ldr	r0, [r8, #8]
   11da4:	e51b5040 	ldr	r5, [fp, #-64]	; 0xffffffc0
   11da8:	e0422001 	sub	r2, r2, r1
   11dac:	e2422004 	sub	r2, r2, #4
   11db0:	e5812000 	str	r2, [r1]
   11db4:	e7801105 	str	r1, [r0, r5, lsl #2]
   11db8:	e51b002c 	ldr	r0, [fp, #-44]	; 0xffffffd4
   11dbc:	e5992018 	ldr	r2, [r9, #24]
   11dc0:	e0401001 	sub	r1, r0, r1
   11dc4:	e0422001 	sub	r2, r2, r1
   11dc8:	e2021003 	and	r1, r2, #3
   11dcc:	e0800001 	add	r0, r0, r1
   11dd0:	e3c22003 	bic	r2, r2, #3
   11dd4:	e59fa120 	ldr	sl, [pc, #288]	; 11efc <_nl_find_msg+0xbcc>
   11dd8:	e1a05105 	lsl	r5, r5, #2
   11ddc:	e5890014 	str	r0, [r9, #20]
   11de0:	e5892018 	str	r2, [r9, #24]
   11de4:	e5996010 	ldr	r6, [r9, #16]
   11de8:	e1a01007 	mov	r1, r7
   11dec:	e1a04006 	mov	r4, r6
   11df0:	e1a0200a 	mov	r2, sl
   11df4:	e5923000 	ldr	r3, [r2]
   11df8:	e1530004 	cmp	r3, r4
   11dfc:	1a000005 	bne	11e18 <_nl_find_msg+0xae8>
   11e00:	e1a00004 	mov	r0, r4
   11e04:	e3e03a0f 	mvn	r3, #61440	; 0xf000
   11e08:	e1a0e00f 	mov	lr, pc
   11e0c:	e243f03f 	sub	pc, r3, #63	; 0x3f
   11e10:	3afffff7 	bcc	11df4 <_nl_find_msg+0xac4>
   11e14:	e1a03004 	mov	r3, r4
   11e18:	e1560003 	cmp	r6, r3
   11e1c:	1afffff0 	bne	11de4 <_nl_find_msg+0xab4>
   11e20:	e3560001 	cmp	r6, #1
   11e24:	da000005 	ble	11e40 <_nl_find_msg+0xb10>
   11e28:	e1a0000a 	mov	r0, sl
   11e2c:	e3a01081 	mov	r1, #129	; 0x81
   11e30:	e3a02001 	mov	r2, #1
   11e34:	e3a03000 	mov	r3, #0
   11e38:	e3a070f0 	mov	r7, #240	; 0xf0
   11e3c:	ef000000 	svc	0x00000000
   11e40:	e5983008 	ldr	r3, [r8, #8]
   11e44:	e7934005 	ldr	r4, [r3, r5]
   11e48:	eafffe51 	b	11794 <_nl_find_msg+0x464>
   11e4c:	e51b3040 	ldr	r3, [fp, #-64]	; 0xffffffc0
   11e50:	e2830001 	add	r0, r3, #1
   11e54:	e0800080 	add	r0, r0, r0, lsl #1
   11e58:	e1a00100 	lsl	r0, r0, #2
   11e5c:	eb004395 	bl	22cb8 <__libc_malloc>
   11e60:	e1a01000 	mov	r1, r0
   11e64:	eaffff5c 	b	11bdc <_nl_find_msg+0x8ac>
   11e68:	e3a0202f 	mov	r2, #47	; 0x2f
   11e6c:	e3500000 	cmp	r0, #0
   11e70:	e2830001 	add	r0, r3, #1
   11e74:	e5c32000 	strb	r2, [r3]
   11e78:	05c32001 	strbeq	r2, [r3, #1]
   11e7c:	11a03000 	movne	r3, r0
   11e80:	02833002 	addeq	r3, r3, #2
   11e84:	eafffdea 	b	11634 <_nl_find_msg+0x304>
   11e88:	e3a0302f 	mov	r3, #47	; 0x2f
   11e8c:	e3510000 	cmp	r1, #0
   11e90:	e2802001 	add	r2, r0, #1
   11e94:	e5c03000 	strb	r3, [r0]
   11e98:	11a00002 	movne	r0, r2
   11e9c:	1afffdc1 	bne	115a8 <_nl_find_msg+0x278>
   11ea0:	e5c03001 	strb	r3, [r0, #1]
   11ea4:	e3a02008 	mov	r2, #8
   11ea8:	e2800002 	add	r0, r0, #2
   11eac:	e59f105c 	ldr	r1, [pc, #92]	; 11f10 <_nl_find_msg+0xbe0>
   11eb0:	eb0052a6 	bl	26950 <memcpy>
   11eb4:	e2800008 	add	r0, r0, #8
   11eb8:	eafffdba 	b	115a8 <_nl_find_msg+0x278>
   11ebc:	e5960020 	ldr	r0, [r6, #32]
   11ec0:	e3a01004 	mov	r1, #4
   11ec4:	e0870000 	add	r0, r7, r0
   11ec8:	eb004639 	bl	237b4 <__calloc>
   11ecc:	e3500000 	cmp	r0, #0
   11ed0:	e5880008 	str	r0, [r8, #8]
   11ed4:	1afffec9 	bne	11a00 <_nl_find_msg+0x6d0>
   11ed8:	e3e03000 	mvn	r3, #0
   11edc:	e5883008 	str	r3, [r8, #8]
   11ee0:	eafffe9e 	b	11960 <_nl_find_msg+0x630>
   11ee4:	00080234 	.word	0x00080234
	...
   11ef4:	000980f4 	.word	0x000980f4
   11ef8:	00085728 	.word	0x00085728
   11efc:	00098104 	.word	0x00098104
   11f00:	00000fec 	.word	0x00000fec
   11f04:	00071680 	.word	0x00071680
   11f08:	000827fc 	.word	0x000827fc
   11f0c:	00071690 	.word	0x00071690
   11f10:	00072c9c 	.word	0x00072c9c

00011f14 <__dcigettext>:
   11f14:	e92d4ff0 	push	{r4, r5, r6, r7, r8, r9, sl, fp, lr}
   11f18:	e3510000 	cmp	r1, #0
   11f1c:	e28db020 	add	fp, sp, #32
   11f20:	e24dd064 	sub	sp, sp, #100	; 0x64
   11f24:	e50b1054 	str	r1, [fp, #-84]	; 0xffffffac
   11f28:	e50b0060 	str	r0, [fp, #-96]	; 0xffffffa0
   11f2c:	e50b2068 	str	r2, [fp, #-104]	; 0xffffff98
   11f30:	e50b3064 	str	r3, [fp, #-100]	; 0xffffff9c
   11f34:	0a0000d9 	beq	122a0 <__dcigettext+0x38c>
   11f38:	e59b2008 	ldr	r2, [fp, #8]
   11f3c:	e2425006 	sub	r5, r2, #6
   11f40:	e16f5f15 	clz	r5, r5
   11f44:	e1a052a5 	lsr	r5, r5, #5
   11f48:	e352000c 	cmp	r2, #12
   11f4c:	83855001 	orrhi	r5, r5, #1
   11f50:	e3550000 	cmp	r5, #0
   11f54:	1a0000d5 	bne	122b0 <__dcigettext+0x39c>
   11f58:	ebfffbcc 	bl	10e90 <__aeabi_read_tp>
   11f5c:	e59f3778 	ldr	r3, [pc, #1912]	; 126dc <__dcigettext+0x7c8>
   11f60:	e59f4778 	ldr	r4, [pc, #1912]	; 126e0 <__dcigettext+0x7cc>
   11f64:	e79f3003 	ldr	r3, [pc, r3]
   11f68:	e3540000 	cmp	r4, #0
   11f6c:	e7903003 	ldr	r3, [r0, r3]
   11f70:	e50b3070 	str	r3, [fp, #-112]	; 0xffffff90
   11f74:	0a000113 	beq	123c8 <__dcigettext+0x4b4>
   11f78:	e59f0764 	ldr	r0, [pc, #1892]	; 126e4 <__dcigettext+0x7d0>
   11f7c:	e1a00000 	nop			; (mov r0, r0)
   11f80:	e59f0760 	ldr	r0, [pc, #1888]	; 126e8 <__dcigettext+0x7d4>
   11f84:	e1a00000 	nop			; (mov r0, r0)
   11f88:	e51b3060 	ldr	r3, [fp, #-96]	; 0xffffffa0
   11f8c:	e3530000 	cmp	r3, #0
   11f90:	0a00015f 	beq	12514 <__dcigettext+0x600>
   11f94:	e51b3054 	ldr	r3, [fp, #-84]	; 0xffffffac
   11f98:	e59b0008 	ldr	r0, [fp, #8]
   11f9c:	e50b3028 	str	r3, [fp, #-40]	; 0xffffffd8
   11fa0:	e51b3060 	ldr	r3, [fp, #-96]	; 0xffffffa0
   11fa4:	e50b5034 	str	r5, [fp, #-52]	; 0xffffffcc
   11fa8:	e50b3044 	str	r3, [fp, #-68]	; 0xffffffbc
   11fac:	e50b0040 	str	r0, [fp, #-64]	; 0xffffffc0
   11fb0:	eb0090ee 	bl	36370 <__current_locale_name>
   11fb4:	e1a04000 	mov	r4, r0
   11fb8:	eb004d8c 	bl	255f0 <strlen>
   11fbc:	e280300f 	add	r3, r0, #15
   11fc0:	e3c33007 	bic	r3, r3, #7
   11fc4:	e04dd003 	sub	sp, sp, r3
   11fc8:	e2802001 	add	r2, r0, #1
   11fcc:	e1a01004 	mov	r1, r4
   11fd0:	e28d0008 	add	r0, sp, #8
   11fd4:	eb00525d 	bl	26950 <memcpy>
   11fd8:	e50b0074 	str	r0, [fp, #-116]	; 0xffffff8c
   11fdc:	e50b003c 	str	r0, [fp, #-60]	; 0xffffffc4
   11fe0:	e59f0704 	ldr	r0, [pc, #1796]	; 126ec <__dcigettext+0x7d8>
   11fe4:	e1a00000 	nop			; (mov r0, r0)
   11fe8:	e59f2700 	ldr	r2, [pc, #1792]	; 126f0 <__dcigettext+0x7dc>
   11fec:	e59f1700 	ldr	r1, [pc, #1792]	; 126f4 <__dcigettext+0x7e0>
   11ff0:	e24b0044 	sub	r0, fp, #68	; 0x44
   11ff4:	eb005b85 	bl	28e10 <__tfind>
   11ff8:	e59f36f8 	ldr	r3, [pc, #1784]	; 126f8 <__dcigettext+0x7e4>
   11ffc:	e50b006c 	str	r0, [fp, #-108]	; 0xffffff94
   12000:	e3530000 	cmp	r3, #0
   12004:	0a000001 	beq	12010 <__dcigettext+0xfc>
   12008:	e59f06dc 	ldr	r0, [pc, #1756]	; 126ec <__dcigettext+0x7d8>
   1200c:	e1a00000 	nop			; (mov r0, r0)
   12010:	e51b306c 	ldr	r3, [fp, #-108]	; 0xffffff94
   12014:	e3530000 	cmp	r3, #0
   12018:	0a000005 	beq	12034 <__dcigettext+0x120>
   1201c:	e5932000 	ldr	r2, [r3]
   12020:	e59f36d4 	ldr	r3, [pc, #1748]	; 126fc <__dcigettext+0x7e8>
   12024:	e592100c 	ldr	r1, [r2, #12]
   12028:	e5933000 	ldr	r3, [r3]
   1202c:	e1510003 	cmp	r1, r3
   12030:	0a0000fb 	beq	12424 <__dcigettext+0x510>
   12034:	e59f36c4 	ldr	r3, [pc, #1732]	; 12700 <__dcigettext+0x7ec>
   12038:	e5935000 	ldr	r5, [r3]
   1203c:	e3550000 	cmp	r5, #0
   12040:	0a0000a3 	beq	122d4 <__dcigettext+0x3c0>
   12044:	e51b4060 	ldr	r4, [fp, #-96]	; 0xffffffa0
   12048:	ea000003 	b	1205c <__dcigettext+0x148>
   1204c:	ba00009f 	blt	122d0 <__dcigettext+0x3bc>
   12050:	e5955000 	ldr	r5, [r5]
   12054:	e3550000 	cmp	r5, #0
   12058:	0a00009d 	beq	122d4 <__dcigettext+0x3c0>
   1205c:	e285100c 	add	r1, r5, #12
   12060:	e1a00004 	mov	r0, r4
   12064:	eb004d41 	bl	25570 <strcmp>
   12068:	e3500000 	cmp	r0, #0
   1206c:	1afffff6 	bne	1204c <__dcigettext+0x138>
   12070:	e5953004 	ldr	r3, [r5, #4]
   12074:	e1a06000 	mov	r6, r0
   12078:	e50b3050 	str	r3, [fp, #-80]	; 0xffffffb0
   1207c:	e5d33000 	ldrb	r3, [r3]
   12080:	e353002f 	cmp	r3, #47	; 0x2f
   12084:	0a000022 	beq	12114 <__dcigettext+0x200>
   12088:	e51b0050 	ldr	r0, [fp, #-80]	; 0xffffffb0
   1208c:	eb004d57 	bl	255f0 <strlen>
   12090:	e59f466c 	ldr	r4, [pc, #1644]	; 12704 <__dcigettext+0x7f0>
   12094:	e59f866c 	ldr	r8, [pc, #1644]	; 12708 <__dcigettext+0x7f4>
   12098:	e2807001 	add	r7, r0, #1
   1209c:	ea000004 	b	120b4 <__dcigettext+0x1a0>
   120a0:	e79f3003 	ldr	r3, [pc, r3]
   120a4:	e2844020 	add	r4, r4, #32
   120a8:	e7993003 	ldr	r3, [r9, r3]
   120ac:	e3530022 	cmp	r3, #34	; 0x22
   120b0:	1a000069 	bne	1225c <__dcigettext+0x348>
   120b4:	ebfffb75 	bl	10e90 <__aeabi_read_tp>
   120b8:	e1a09000 	mov	r9, r0
   120bc:	e0843007 	add	r3, r4, r7
   120c0:	e283300e 	add	r3, r3, #14
   120c4:	e3c33007 	bic	r3, r3, #7
   120c8:	e04dd003 	sub	sp, sp, r3
   120cc:	e28da008 	add	sl, sp, #8
   120d0:	e79f3008 	ldr	r3, [pc, r8]
   120d4:	e1a01004 	mov	r1, r4
   120d8:	e1a0000a 	mov	r0, sl
   120dc:	e7896003 	str	r6, [r9, r3]
   120e0:	eb00579c 	bl	27f58 <__getcwd>
   120e4:	e3500000 	cmp	r0, #0
   120e8:	e59f361c 	ldr	r3, [pc, #1564]	; 1270c <__dcigettext+0x7f8>
   120ec:	e08440a4 	add	r4, r4, r4, lsr #1
   120f0:	0affffea 	beq	120a0 <__dcigettext+0x18c>
   120f4:	e3a01000 	mov	r1, #0
   120f8:	e1a0000a 	mov	r0, sl
   120fc:	eb0052ba 	bl	26bec <__rawmemchr>
   12100:	e3a0302f 	mov	r3, #47	; 0x2f
   12104:	e51b1050 	ldr	r1, [fp, #-80]	; 0xffffffb0
   12108:	e4c03001 	strb	r3, [r0], #1
   1210c:	e50ba050 	str	sl, [fp, #-80]	; 0xffffffb0
   12110:	eb004d20 	bl	25598 <strcpy>
   12114:	e59b1008 	ldr	r1, [fp, #8]
   12118:	e59f25f0 	ldr	r2, [pc, #1520]	; 12710 <__dcigettext+0x7fc>
   1211c:	e59f35f0 	ldr	r3, [pc, #1520]	; 12714 <__dcigettext+0x800>
   12120:	e7d26001 	ldrb	r6, [r2, r1]
   12124:	e1a00001 	mov	r0, r1
   12128:	e0866003 	add	r6, r6, r3
   1212c:	eb00908f 	bl	36370 <__current_locale_name>
   12130:	e5d03000 	ldrb	r3, [r0]
   12134:	e1a04000 	mov	r4, r0
   12138:	e3530043 	cmp	r3, #67	; 0x43
   1213c:	1a000067 	bne	122e0 <__dcigettext+0x3cc>
   12140:	e5d03001 	ldrb	r3, [r0, #1]
   12144:	e3530000 	cmp	r3, #0
   12148:	1a000064 	bne	122e0 <__dcigettext+0x3cc>
   1214c:	e51b8060 	ldr	r8, [fp, #-96]	; 0xffffffa0
   12150:	e3a0a001 	mov	sl, #1
   12154:	e1a00008 	mov	r0, r8
   12158:	eb004d24 	bl	255f0 <strlen>
   1215c:	e1a07000 	mov	r7, r0
   12160:	e50b007c 	str	r0, [fp, #-124]	; 0xffffff84
   12164:	e1a00006 	mov	r0, r6
   12168:	eb004d20 	bl	255f0 <strlen>
   1216c:	e0870000 	add	r0, r7, r0
   12170:	e2803013 	add	r3, r0, #19
   12174:	e3c33007 	bic	r3, r3, #7
   12178:	e04dd003 	sub	sp, sp, r3
   1217c:	e28d3008 	add	r3, sp, #8
   12180:	e1a00003 	mov	r0, r3
   12184:	e1a01006 	mov	r1, r6
   12188:	e50b305c 	str	r3, [fp, #-92]	; 0xffffffa4
   1218c:	eb0051ce 	bl	268cc <__stpcpy>
   12190:	e3a02002 	mov	r2, #2
   12194:	e59f157c 	ldr	r1, [pc, #1404]	; 12718 <__dcigettext+0x804>
   12198:	eb0051ec 	bl	26950 <memcpy>
   1219c:	e1a02007 	mov	r2, r7
   121a0:	e1a01008 	mov	r1, r8
   121a4:	e2800001 	add	r0, r0, #1
   121a8:	eb0051e8 	bl	26950 <memcpy>
   121ac:	e3a02004 	mov	r2, #4
   121b0:	e59f1564 	ldr	r1, [pc, #1380]	; 1271c <__dcigettext+0x808>
   121b4:	e0800007 	add	r0, r0, r7
   121b8:	eb0051e4 	bl	26950 <memcpy>
   121bc:	e1a00004 	mov	r0, r4
   121c0:	eb004d0a 	bl	255f0 <strlen>
   121c4:	e280000f 	add	r0, r0, #15
   121c8:	e3c03007 	bic	r3, r0, #7
   121cc:	e04dd003 	sub	sp, sp, r3
   121d0:	e28d6008 	add	r6, sp, #8
   121d4:	e24b9048 	sub	r9, fp, #72	; 0x48
   121d8:	e5d43000 	ldrb	r3, [r4]
   121dc:	e353003a 	cmp	r3, #58	; 0x3a
   121e0:	0a00005f 	beq	12364 <__dcigettext+0x450>
   121e4:	e3530000 	cmp	r3, #0
   121e8:	1a000044 	bne	12300 <__dcigettext+0x3ec>
   121ec:	e3a02043 	mov	r2, #67	; 0x43
   121f0:	e5c63001 	strb	r3, [r6, #1]
   121f4:	e5c62000 	strb	r2, [r6]
   121f8:	e5d63001 	ldrb	r3, [r6, #1]
   121fc:	e3530000 	cmp	r3, #0
   12200:	0a000015 	beq	1225c <__dcigettext+0x348>
   12204:	e59f1514 	ldr	r1, [pc, #1300]	; 12720 <__dcigettext+0x80c>
   12208:	e1a00006 	mov	r0, r6
   1220c:	eb004cd7 	bl	25570 <strcmp>
   12210:	e3500000 	cmp	r0, #0
   12214:	0a000010 	beq	1225c <__dcigettext+0x348>
   12218:	e1a03005 	mov	r3, r5
   1221c:	e51b205c 	ldr	r2, [fp, #-92]	; 0xffffffa4
   12220:	e1a01006 	mov	r1, r6
   12224:	e51b0050 	ldr	r0, [fp, #-80]	; 0xffffffb0
   12228:	eb000145 	bl	12744 <_nl_find_domain>
   1222c:	e2503000 	subs	r3, r0, #0
   12230:	e50b3058 	str	r3, [fp, #-88]	; 0xffffffa8
   12234:	0affffe7 	beq	121d8 <__dcigettext+0x2c4>
   12238:	e1a0300a 	mov	r3, sl
   1223c:	e58d9000 	str	r9, [sp]
   12240:	e51b2054 	ldr	r2, [fp, #-84]	; 0xffffffac
   12244:	e1a01005 	mov	r1, r5
   12248:	ebfffc38 	bl	11330 <_nl_find_msg>
   1224c:	e2503000 	subs	r3, r0, #0
   12250:	0a000045 	beq	1236c <__dcigettext+0x458>
   12254:	e3730001 	cmn	r3, #1
   12258:	1a00008a 	bne	12488 <__dcigettext+0x574>
   1225c:	e59f3494 	ldr	r3, [pc, #1172]	; 126f8 <__dcigettext+0x7e4>
   12260:	e3530000 	cmp	r3, #0
   12264:	0a000003 	beq	12278 <__dcigettext+0x364>
   12268:	e59f0478 	ldr	r0, [pc, #1144]	; 126e8 <__dcigettext+0x7d4>
   1226c:	e1a00000 	nop			; (mov r0, r0)
   12270:	e59f046c 	ldr	r0, [pc, #1132]	; 126e4 <__dcigettext+0x7d0>
   12274:	e1a00000 	nop			; (mov r0, r0)
   12278:	e59b3004 	ldr	r3, [fp, #4]
   1227c:	e51b2064 	ldr	r2, [fp, #-100]	; 0xffffff9c
   12280:	ebfffb02 	bl	10e90 <__aeabi_read_tp>
   12284:	e3520000 	cmp	r2, #0
   12288:	13530001 	cmpne	r3, #1
   1228c:	e59f3490 	ldr	r3, [pc, #1168]	; 12724 <__dcigettext+0x810>
   12290:	e51b2070 	ldr	r2, [fp, #-112]	; 0xffffff90
   12294:	e79f3003 	ldr	r3, [pc, r3]
   12298:	e7802003 	str	r2, [r0, r3]
   1229c:	1a000007 	bne	122c0 <__dcigettext+0x3ac>
   122a0:	e51b3054 	ldr	r3, [fp, #-84]	; 0xffffffac
   122a4:	e1a00003 	mov	r0, r3
   122a8:	e24bd020 	sub	sp, fp, #32
   122ac:	e8bd8ff0 	pop	{r4, r5, r6, r7, r8, r9, sl, fp, pc}
   122b0:	e59b2004 	ldr	r2, [fp, #4]
   122b4:	e3530000 	cmp	r3, #0
   122b8:	13520001 	cmpne	r2, #1
   122bc:	0afffff7 	beq	122a0 <__dcigettext+0x38c>
   122c0:	e51b3068 	ldr	r3, [fp, #-104]	; 0xffffff98
   122c4:	e1a00003 	mov	r0, r3
   122c8:	e24bd020 	sub	sp, fp, #32
   122cc:	e8bd8ff0 	pop	{r4, r5, r6, r7, r8, r9, sl, fp, pc}
   122d0:	e3a05000 	mov	r5, #0
   122d4:	e59f344c 	ldr	r3, [pc, #1100]	; 12728 <__dcigettext+0x814>
   122d8:	e50b3050 	str	r3, [fp, #-80]	; 0xffffffb0
   122dc:	eaffff8c 	b	12114 <__dcigettext+0x200>
   122e0:	e59f0444 	ldr	r0, [pc, #1092]	; 1272c <__dcigettext+0x818>
   122e4:	eb001001 	bl	162f0 <getenv>
   122e8:	e3500000 	cmp	r0, #0
   122ec:	0affff96 	beq	1214c <__dcigettext+0x238>
   122f0:	e5d03000 	ldrb	r3, [r0]
   122f4:	e3530000 	cmp	r3, #0
   122f8:	11a04000 	movne	r4, r0
   122fc:	eaffff92 	b	1214c <__dcigettext+0x238>
   12300:	e1a01006 	mov	r1, r6
   12304:	e2842001 	add	r2, r4, #1
   12308:	e4c13001 	strb	r3, [r1], #1
   1230c:	e5d23000 	ldrb	r3, [r2]
   12310:	e1a04002 	mov	r4, r2
   12314:	e3530000 	cmp	r3, #0
   12318:	1353003a 	cmpne	r3, #58	; 0x3a
   1231c:	e2822001 	add	r2, r2, #1
   12320:	13a00001 	movne	r0, #1
   12324:	03a00000 	moveq	r0, #0
   12328:	1afffff6 	bne	12308 <__dcigettext+0x3f4>
   1232c:	e59f33fc 	ldr	r3, [pc, #1020]	; 12730 <__dcigettext+0x81c>
   12330:	e5c10000 	strb	r0, [r1]
   12334:	e5933000 	ldr	r3, [r3]
   12338:	e3530000 	cmp	r3, #0
   1233c:	0a000004 	beq	12354 <__dcigettext+0x440>
   12340:	e3a0102f 	mov	r1, #47	; 0x2f
   12344:	e1a00006 	mov	r0, r6
   12348:	eb004c45 	bl	25464 <strchr>
   1234c:	e3500000 	cmp	r0, #0
   12350:	1affffa0 	bne	121d8 <__dcigettext+0x2c4>
   12354:	e5d63000 	ldrb	r3, [r6]
   12358:	e3530043 	cmp	r3, #67	; 0x43
   1235c:	1affffa8 	bne	12204 <__dcigettext+0x2f0>
   12360:	eaffffa4 	b	121f8 <__dcigettext+0x2e4>
   12364:	e2844001 	add	r4, r4, #1
   12368:	eaffff9a 	b	121d8 <__dcigettext+0x2c4>
   1236c:	e51b2058 	ldr	r2, [fp, #-88]	; 0xffffffa8
   12370:	e5920010 	ldr	r0, [r2, #16]
   12374:	e3500000 	cmp	r0, #0
   12378:	0affff96 	beq	121d8 <__dcigettext+0x2c4>
   1237c:	e50b4078 	str	r4, [fp, #-120]	; 0xffffff88
   12380:	e1a07003 	mov	r7, r3
   12384:	e2828010 	add	r8, r2, #16
   12388:	e51b4054 	ldr	r4, [fp, #-84]	; 0xffffffac
   1238c:	ea000005 	b	123a8 <__dcigettext+0x494>
   12390:	e3500000 	cmp	r0, #0
   12394:	1a000036 	bne	12474 <__dcigettext+0x560>
   12398:	e5b80004 	ldr	r0, [r8, #4]!
   1239c:	e2877001 	add	r7, r7, #1
   123a0:	e3500000 	cmp	r0, #0
   123a4:	0a000058 	beq	1250c <__dcigettext+0x5f8>
   123a8:	e58d9000 	str	r9, [sp]
   123ac:	e1a0300a 	mov	r3, sl
   123b0:	e1a02004 	mov	r2, r4
   123b4:	e1a01005 	mov	r1, r5
   123b8:	ebfffbdc 	bl	11330 <_nl_find_msg>
   123bc:	e3700001 	cmn	r0, #1
   123c0:	1afffff2 	bne	12390 <__dcigettext+0x47c>
   123c4:	eaffffa4 	b	1225c <__dcigettext+0x348>
   123c8:	e51b3060 	ldr	r3, [fp, #-96]	; 0xffffffa0
   123cc:	e3530000 	cmp	r3, #0
   123d0:	0a00004f 	beq	12514 <__dcigettext+0x600>
   123d4:	e51b3054 	ldr	r3, [fp, #-84]	; 0xffffffac
   123d8:	e59b0008 	ldr	r0, [fp, #8]
   123dc:	e50b3028 	str	r3, [fp, #-40]	; 0xffffffd8
   123e0:	e51b3060 	ldr	r3, [fp, #-96]	; 0xffffffa0
   123e4:	e50b4034 	str	r4, [fp, #-52]	; 0xffffffcc
   123e8:	e50b3044 	str	r3, [fp, #-68]	; 0xffffffbc
   123ec:	e50b0040 	str	r0, [fp, #-64]	; 0xffffffc0
   123f0:	eb008fde 	bl	36370 <__current_locale_name>
   123f4:	e1a04000 	mov	r4, r0
   123f8:	eb004c7c 	bl	255f0 <strlen>
   123fc:	e280300f 	add	r3, r0, #15
   12400:	e3c33007 	bic	r3, r3, #7
   12404:	e04dd003 	sub	sp, sp, r3
   12408:	e2802001 	add	r2, r0, #1
   1240c:	e1a01004 	mov	r1, r4
   12410:	e28d0008 	add	r0, sp, #8
   12414:	eb00514d 	bl	26950 <memcpy>
   12418:	e50b0074 	str	r0, [fp, #-116]	; 0xffffff8c
   1241c:	e50b003c 	str	r0, [fp, #-60]	; 0xffffffc4
   12420:	eafffef0 	b	11fe8 <__dcigettext+0xd4>
   12424:	e51b3064 	ldr	r3, [fp, #-100]	; 0xffffff9c
   12428:	e3530000 	cmp	r3, #0
   1242c:	05924014 	ldreq	r4, [r2, #20]
   12430:	1a000099 	bne	1269c <__dcigettext+0x788>
   12434:	e59f32bc 	ldr	r3, [pc, #700]	; 126f8 <__dcigettext+0x7e4>
   12438:	e3530000 	cmp	r3, #0
   1243c:	0a000003 	beq	12450 <__dcigettext+0x53c>
   12440:	e59f02a0 	ldr	r0, [pc, #672]	; 126e8 <__dcigettext+0x7d4>
   12444:	e1a00000 	nop			; (mov r0, r0)
   12448:	e59f0294 	ldr	r0, [pc, #660]	; 126e4 <__dcigettext+0x7d0>
   1244c:	e1a00000 	nop			; (mov r0, r0)
   12450:	ebfffa8e 	bl	10e90 <__aeabi_read_tp>
   12454:	e1a03004 	mov	r3, r4
   12458:	e59f22d4 	ldr	r2, [pc, #724]	; 12734 <__dcigettext+0x820>
   1245c:	e51b1070 	ldr	r1, [fp, #-112]	; 0xffffff90
   12460:	e79f2002 	ldr	r2, [pc, r2]
   12464:	e7801002 	str	r1, [r0, r2]
   12468:	e1a00003 	mov	r0, r3
   1246c:	e24bd020 	sub	sp, fp, #32
   12470:	e8bd8ff0 	pop	{r4, r5, r6, r7, r8, r9, sl, fp, pc}
   12474:	e1a03000 	mov	r3, r0
   12478:	e51b2058 	ldr	r2, [fp, #-88]	; 0xffffffa8
   1247c:	e2877004 	add	r7, r7, #4
   12480:	e7922107 	ldr	r2, [r2, r7, lsl #2]
   12484:	e50b2058 	str	r2, [fp, #-88]	; 0xffffffa8
   12488:	e51b206c 	ldr	r2, [fp, #-108]	; 0xffffff94
   1248c:	e3520000 	cmp	r2, #0
   12490:	0a000038 	beq	12578 <__dcigettext+0x664>
   12494:	e51bc06c 	ldr	ip, [fp, #-108]	; 0xffffff94
   12498:	e51b0058 	ldr	r0, [fp, #-88]	; 0xffffffa8
   1249c:	e59c2000 	ldr	r2, [ip]
   124a0:	e59f1254 	ldr	r1, [pc, #596]	; 126fc <__dcigettext+0x7e8>
   124a4:	e5820010 	str	r0, [r2, #16]
   124a8:	e5910000 	ldr	r0, [r1]
   124ac:	e59c1000 	ldr	r1, [ip]
   124b0:	e582000c 	str	r0, [r2, #12]
   124b4:	e5813014 	str	r3, [r1, #20]
   124b8:	e59c2000 	ldr	r2, [ip]
   124bc:	e51b1048 	ldr	r1, [fp, #-72]	; 0xffffffb8
   124c0:	e5821018 	str	r1, [r2, #24]
   124c4:	ebfffa71 	bl	10e90 <__aeabi_read_tp>
   124c8:	e51b1064 	ldr	r1, [fp, #-100]	; 0xffffff9c
   124cc:	e59f2264 	ldr	r2, [pc, #612]	; 12738 <__dcigettext+0x824>
   124d0:	e3510000 	cmp	r1, #0
   124d4:	e79f2002 	ldr	r2, [pc, r2]
   124d8:	e51b1070 	ldr	r1, [fp, #-112]	; 0xffffff90
   124dc:	e7801002 	str	r1, [r0, r2]
   124e0:	1a000075 	bne	126bc <__dcigettext+0x7a8>
   124e4:	e59f220c 	ldr	r2, [pc, #524]	; 126f8 <__dcigettext+0x7e4>
   124e8:	e3520000 	cmp	r2, #0
   124ec:	0affff74 	beq	122c4 <__dcigettext+0x3b0>
   124f0:	e59f01f0 	ldr	r0, [pc, #496]	; 126e8 <__dcigettext+0x7d4>
   124f4:	e50b3050 	str	r3, [fp, #-80]	; 0xffffffb0
   124f8:	e1a00000 	nop			; (mov r0, r0)
   124fc:	e59f01e0 	ldr	r0, [pc, #480]	; 126e4 <__dcigettext+0x7d0>
   12500:	e1a00000 	nop			; (mov r0, r0)
   12504:	e51b3050 	ldr	r3, [fp, #-80]	; 0xffffffb0
   12508:	eaffff6d 	b	122c4 <__dcigettext+0x3b0>
   1250c:	e51b4078 	ldr	r4, [fp, #-120]	; 0xffffff88
   12510:	eaffff30 	b	121d8 <__dcigettext+0x2c4>
   12514:	e3a03000 	mov	r3, #0
   12518:	e59f221c 	ldr	r2, [pc, #540]	; 1273c <__dcigettext+0x828>
   1251c:	e51b1054 	ldr	r1, [fp, #-84]	; 0xffffffac
   12520:	e5922000 	ldr	r2, [r2]
   12524:	e59b0008 	ldr	r0, [fp, #8]
   12528:	e50b2060 	str	r2, [fp, #-96]	; 0xffffffa0
   1252c:	e50b1028 	str	r1, [fp, #-40]	; 0xffffffd8
   12530:	e50b2044 	str	r2, [fp, #-68]	; 0xffffffbc
   12534:	e50b3034 	str	r3, [fp, #-52]	; 0xffffffcc
   12538:	e50b0040 	str	r0, [fp, #-64]	; 0xffffffc0
   1253c:	eb008f8b 	bl	36370 <__current_locale_name>
   12540:	e1a05000 	mov	r5, r0
   12544:	eb004c29 	bl	255f0 <strlen>
   12548:	e280300f 	add	r3, r0, #15
   1254c:	e3c33007 	bic	r3, r3, #7
   12550:	e04dd003 	sub	sp, sp, r3
   12554:	e2802001 	add	r2, r0, #1
   12558:	e1a01005 	mov	r1, r5
   1255c:	e28d0008 	add	r0, sp, #8
   12560:	eb0050fa 	bl	26950 <memcpy>
   12564:	e3540000 	cmp	r4, #0
   12568:	e50b0074 	str	r0, [fp, #-116]	; 0xffffff8c
   1256c:	e50b003c 	str	r0, [fp, #-60]	; 0xffffffc4
   12570:	1afffe9a 	bne	11fe0 <__dcigettext+0xcc>
   12574:	eafffe9b 	b	11fe8 <__dcigettext+0xd4>
   12578:	e51b9054 	ldr	r9, [fp, #-84]	; 0xffffffac
   1257c:	e50b3050 	str	r3, [fp, #-80]	; 0xffffffb0
   12580:	e1a00009 	mov	r0, r9
   12584:	eb004c19 	bl	255f0 <strlen>
   12588:	e51b8074 	ldr	r8, [fp, #-116]	; 0xffffff8c
   1258c:	e2804001 	add	r4, r0, #1
   12590:	e1a00008 	mov	r0, r8
   12594:	eb004c15 	bl	255f0 <strlen>
   12598:	e1a05000 	mov	r5, r0
   1259c:	e51b707c 	ldr	r7, [fp, #-124]	; 0xffffff84
   125a0:	e287001e 	add	r0, r7, #30
   125a4:	e0800005 	add	r0, r0, r5
   125a8:	e0800004 	add	r0, r0, r4
   125ac:	eb0041c1 	bl	22cb8 <__libc_malloc>
   125b0:	e2506000 	subs	r6, r0, #0
   125b4:	e51b3050 	ldr	r3, [fp, #-80]	; 0xffffffb0
   125b8:	0affffc1 	beq	124c4 <__dcigettext+0x5b0>
   125bc:	e1a02004 	mov	r2, r4
   125c0:	e1a01009 	mov	r1, r9
   125c4:	e286001c 	add	r0, r6, #28
   125c8:	eb0050e0 	bl	26950 <memcpy>
   125cc:	e2872001 	add	r2, r7, #1
   125d0:	e0804004 	add	r4, r0, r4
   125d4:	e0847002 	add	r7, r4, r2
   125d8:	e51b1060 	ldr	r1, [fp, #-96]	; 0xffffffa0
   125dc:	e1a00004 	mov	r0, r4
   125e0:	eb0050da 	bl	26950 <memcpy>
   125e4:	e2852001 	add	r2, r5, #1
   125e8:	e1a01008 	mov	r1, r8
   125ec:	e1a00007 	mov	r0, r7
   125f0:	eb0050d6 	bl	26950 <memcpy>
   125f4:	e59b3008 	ldr	r3, [fp, #8]
   125f8:	e59f20fc 	ldr	r2, [pc, #252]	; 126fc <__dcigettext+0x7e8>
   125fc:	e5863004 	str	r3, [r6, #4]
   12600:	e51b3058 	ldr	r3, [fp, #-88]	; 0xffffffa8
   12604:	e59f0134 	ldr	r0, [pc, #308]	; 12740 <__dcigettext+0x82c>
   12608:	e5921000 	ldr	r1, [r2]
   1260c:	e5863010 	str	r3, [r6, #16]
   12610:	e51b2048 	ldr	r2, [fp, #-72]	; 0xffffffb8
   12614:	e51b3050 	ldr	r3, [fp, #-80]	; 0xffffffb0
   12618:	e3500000 	cmp	r0, #0
   1261c:	e5867008 	str	r7, [r6, #8]
   12620:	e5864000 	str	r4, [r6]
   12624:	e5863014 	str	r3, [r6, #20]
   12628:	e586100c 	str	r1, [r6, #12]
   1262c:	e5862018 	str	r2, [r6, #24]
   12630:	0a000002 	beq	12640 <__dcigettext+0x72c>
   12634:	e59f00b0 	ldr	r0, [pc, #176]	; 126ec <__dcigettext+0x7d8>
   12638:	e1a00000 	nop			; (mov r0, r0)
   1263c:	e51b3050 	ldr	r3, [fp, #-80]	; 0xffffffb0
   12640:	e59f20a8 	ldr	r2, [pc, #168]	; 126f0 <__dcigettext+0x7dc>
   12644:	e59f10a8 	ldr	r1, [pc, #168]	; 126f4 <__dcigettext+0x7e0>
   12648:	e1a00006 	mov	r0, r6
   1264c:	e50b3050 	str	r3, [fp, #-80]	; 0xffffffb0
   12650:	eb005991 	bl	28c9c <__tsearch>
   12654:	e59f309c 	ldr	r3, [pc, #156]	; 126f8 <__dcigettext+0x7e4>
   12658:	e1a04000 	mov	r4, r0
   1265c:	e3530000 	cmp	r3, #0
   12660:	e51b3050 	ldr	r3, [fp, #-80]	; 0xffffffb0
   12664:	0a000002 	beq	12674 <__dcigettext+0x760>
   12668:	e59f007c 	ldr	r0, [pc, #124]	; 126ec <__dcigettext+0x7d8>
   1266c:	e1a00000 	nop			; (mov r0, r0)
   12670:	e51b3050 	ldr	r3, [fp, #-80]	; 0xffffffb0
   12674:	e3540000 	cmp	r4, #0
   12678:	0a000002 	beq	12688 <__dcigettext+0x774>
   1267c:	e5942000 	ldr	r2, [r4]
   12680:	e1560002 	cmp	r6, r2
   12684:	0affff8e 	beq	124c4 <__dcigettext+0x5b0>
   12688:	e1a00006 	mov	r0, r6
   1268c:	e50b3050 	str	r3, [fp, #-80]	; 0xffffffb0
   12690:	eb004369 	bl	2343c <__cfree>
   12694:	e51b3050 	ldr	r3, [fp, #-80]	; 0xffffffb0
   12698:	eaffff89 	b	124c4 <__dcigettext+0x5b0>
   1269c:	e5921010 	ldr	r1, [r2, #16]
   126a0:	e5923018 	ldr	r3, [r2, #24]
   126a4:	e5910008 	ldr	r0, [r1, #8]
   126a8:	e5922014 	ldr	r2, [r2, #20]
   126ac:	e59b1004 	ldr	r1, [fp, #4]
   126b0:	ebfffb06 	bl	112d0 <plural_lookup.isra.1>
   126b4:	e1a04000 	mov	r4, r0
   126b8:	eaffff5d 	b	12434 <__dcigettext+0x520>
   126bc:	e1a02003 	mov	r2, r3
   126c0:	e51b3058 	ldr	r3, [fp, #-88]	; 0xffffffa8
   126c4:	e59b1004 	ldr	r1, [fp, #4]
   126c8:	e5930008 	ldr	r0, [r3, #8]
   126cc:	e51b3048 	ldr	r3, [fp, #-72]	; 0xffffffb8
   126d0:	ebfffafe 	bl	112d0 <plural_lookup.isra.1>
   126d4:	e1a03000 	mov	r3, r0
   126d8:	eaffff81 	b	124e4 <__dcigettext+0x5d0>
   126dc:	000850d4 	.word	0x000850d4
   126e0:	00000000 	.word	0x00000000
   126e4:	00098a00 	.word	0x00098a00
   126e8:	00098110 	.word	0x00098110
   126ec:	00098130 	.word	0x00098130
   126f0:	00011264 	.word	0x00011264
   126f4:	000980f4 	.word	0x000980f4
   126f8:	00000000 	.word	0x00000000
   126fc:	00098ebc 	.word	0x00098ebc
   12700:	00098eb8 	.word	0x00098eb8
   12704:	00001002 	.word	0x00001002
   12708:	00084f68 	.word	0x00084f68
   1270c:	00084f98 	.word	0x00084f98
   12710:	000740d4 	.word	0x000740d4
   12714:	00074048 	.word	0x00074048
   12718:	000738f0 	.word	0x000738f0
   1271c:	000716a8 	.word	0x000716a8
   12720:	000716ac 	.word	0x000716ac
   12724:	00084da4 	.word	0x00084da4
   12728:	000716b4 	.word	0x000716b4
   1272c:	0007169c 	.word	0x0007169c
   12730:	00096fdc 	.word	0x00096fdc
   12734:	00084bd8 	.word	0x00084bd8
   12738:	00084b64 	.word	0x00084b64
   1273c:	00097084 	.word	0x00097084
   12740:	00000000 	.word	0x00000000

00012744 <_nl_find_domain>:
   12744:	e92d4ff0 	push	{r4, r5, r6, r7, r8, r9, sl, fp, lr}
   12748:	e59fc25c 	ldr	ip, [pc, #604]	; 129ac <_nl_find_domain+0x268>
   1274c:	e24dd03c 	sub	sp, sp, #60	; 0x3c
   12750:	e35c0000 	cmp	ip, #0
   12754:	e1a05000 	mov	r5, r0
   12758:	e1a07001 	mov	r7, r1
   1275c:	e1a09002 	mov	r9, r2
   12760:	e1a06003 	mov	r6, r3
   12764:	0a000001 	beq	12770 <_nl_find_domain+0x2c>
   12768:	e59f0240 	ldr	r0, [pc, #576]	; 129b0 <_nl_find_domain+0x26c>
   1276c:	e1a00000 	nop			; (mov r0, r0)
   12770:	e1a00005 	mov	r0, r5
   12774:	eb004b9d 	bl	255f0 <strlen>
   12778:	e3a03000 	mov	r3, #0
   1277c:	e2802001 	add	r2, r0, #1
   12780:	e58d9014 	str	r9, [sp, #20]
   12784:	e58d7000 	str	r7, [sp]
   12788:	e58d3018 	str	r3, [sp, #24]
   1278c:	e58d3010 	str	r3, [sp, #16]
   12790:	e58d300c 	str	r3, [sp, #12]
   12794:	e58d3008 	str	r3, [sp, #8]
   12798:	e58d3004 	str	r3, [sp, #4]
   1279c:	e1a01005 	mov	r1, r5
   127a0:	e59f020c 	ldr	r0, [pc, #524]	; 129b4 <_nl_find_domain+0x270>
   127a4:	eb0007ca 	bl	146d4 <_nl_make_l10nflist>
   127a8:	e59f8208 	ldr	r8, [pc, #520]	; 129b8 <_nl_find_domain+0x274>
   127ac:	e1a04000 	mov	r4, r0
   127b0:	e3580000 	cmp	r8, #0
   127b4:	0a000001 	beq	127c0 <_nl_find_domain+0x7c>
   127b8:	e59f01f0 	ldr	r0, [pc, #496]	; 129b0 <_nl_find_domain+0x26c>
   127bc:	e1a00000 	nop			; (mov r0, r0)
   127c0:	e3540000 	cmp	r4, #0
   127c4:	0a00001e 	beq	12844 <_nl_find_domain+0x100>
   127c8:	e5943004 	ldr	r3, [r4, #4]
   127cc:	e3530000 	cmp	r3, #0
   127d0:	da000017 	ble	12834 <_nl_find_domain+0xf0>
   127d4:	e5943008 	ldr	r3, [r4, #8]
   127d8:	e3530000 	cmp	r3, #0
   127dc:	0a000002 	beq	127ec <_nl_find_domain+0xa8>
   127e0:	e1a00004 	mov	r0, r4
   127e4:	e28dd03c 	add	sp, sp, #60	; 0x3c
   127e8:	e8bd8ff0 	pop	{r4, r5, r6, r7, r8, r9, sl, fp, pc}
   127ec:	e5940010 	ldr	r0, [r4, #16]
   127f0:	e3500000 	cmp	r0, #0
   127f4:	0afffff9 	beq	127e0 <_nl_find_domain+0x9c>
   127f8:	e2845010 	add	r5, r4, #16
   127fc:	ea000006 	b	1281c <_nl_find_domain+0xd8>
   12800:	e4953004 	ldr	r3, [r5], #4
   12804:	e5933008 	ldr	r3, [r3, #8]
   12808:	e3530000 	cmp	r3, #0
   1280c:	1afffff3 	bne	127e0 <_nl_find_domain+0x9c>
   12810:	e5950000 	ldr	r0, [r5]
   12814:	e3500000 	cmp	r0, #0
   12818:	0afffff0 	beq	127e0 <_nl_find_domain+0x9c>
   1281c:	e5903004 	ldr	r3, [r0, #4]
   12820:	e3530000 	cmp	r3, #0
   12824:	cafffff5 	bgt	12800 <_nl_find_domain+0xbc>
   12828:	e1a01006 	mov	r1, r6
   1282c:	eb000063 	bl	129c0 <_nl_load_domain>
   12830:	eafffff2 	b	12800 <_nl_find_domain+0xbc>
   12834:	e1a01006 	mov	r1, r6
   12838:	e1a00004 	mov	r0, r4
   1283c:	eb00005f 	bl	129c0 <_nl_load_domain>
   12840:	eaffffe3 	b	127d4 <_nl_find_domain+0x90>
   12844:	e1a00007 	mov	r0, r7
   12848:	eb00072d 	bl	14504 <_nl_expand_alias>
   1284c:	e250b000 	subs	fp, r0, #0
   12850:	0a000002 	beq	12860 <_nl_find_domain+0x11c>
   12854:	eb004b59 	bl	255c0 <__strdup>
   12858:	e2507000 	subs	r7, r0, #0
   1285c:	0a000050 	beq	129a4 <_nl_find_domain+0x260>
   12860:	e28d2034 	add	r2, sp, #52	; 0x34
   12864:	e28d3030 	add	r3, sp, #48	; 0x30
   12868:	e58d2004 	str	r2, [sp, #4]
   1286c:	e58d3000 	str	r3, [sp]
   12870:	e28d2028 	add	r2, sp, #40	; 0x28
   12874:	e28d302c 	add	r3, sp, #44	; 0x2c
   12878:	e28d1024 	add	r1, sp, #36	; 0x24
   1287c:	e1a00007 	mov	r0, r7
   12880:	eb000943 	bl	14d94 <_nl_explode_name>
   12884:	e3700001 	cmn	r0, #1
   12888:	e1a0a000 	mov	sl, r0
   1288c:	0a000044 	beq	129a4 <_nl_find_domain+0x260>
   12890:	e59f3124 	ldr	r3, [pc, #292]	; 129bc <_nl_find_domain+0x278>
   12894:	e3530000 	cmp	r3, #0
   12898:	0a000001 	beq	128a4 <_nl_find_domain+0x160>
   1289c:	e59f010c 	ldr	r0, [pc, #268]	; 129b0 <_nl_find_domain+0x26c>
   128a0:	e1a00000 	nop			; (mov r0, r0)
   128a4:	e1a00005 	mov	r0, r5
   128a8:	eb004b50 	bl	255f0 <strlen>
   128ac:	e3a0c001 	mov	ip, #1
   128b0:	e59d3034 	ldr	r3, [sp, #52]	; 0x34
   128b4:	e080200c 	add	r2, r0, ip
   128b8:	e59de028 	ldr	lr, [sp, #40]	; 0x28
   128bc:	e59d002c 	ldr	r0, [sp, #44]	; 0x2c
   128c0:	e58dc018 	str	ip, [sp, #24]
   128c4:	e58d300c 	str	r3, [sp, #12]
   128c8:	e59dc030 	ldr	ip, [sp, #48]	; 0x30
   128cc:	e59d3024 	ldr	r3, [sp, #36]	; 0x24
   128d0:	e98d1001 	stmib	sp, {r0, ip}
   128d4:	e58d3000 	str	r3, [sp]
   128d8:	e58d9014 	str	r9, [sp, #20]
   128dc:	e1a01005 	mov	r1, r5
   128e0:	e58de010 	str	lr, [sp, #16]
   128e4:	e1a0300a 	mov	r3, sl
   128e8:	e59f00c4 	ldr	r0, [pc, #196]	; 129b4 <_nl_find_domain+0x270>
   128ec:	eb000778 	bl	146d4 <_nl_make_l10nflist>
   128f0:	e3580000 	cmp	r8, #0
   128f4:	e1a04000 	mov	r4, r0
   128f8:	0a000001 	beq	12904 <_nl_find_domain+0x1c0>
   128fc:	e59f00ac 	ldr	r0, [pc, #172]	; 129b0 <_nl_find_domain+0x26c>
   12900:	e1a00000 	nop			; (mov r0, r0)
   12904:	e3540000 	cmp	r4, #0
   12908:	0a000009 	beq	12934 <_nl_find_domain+0x1f0>
   1290c:	e5943004 	ldr	r3, [r4, #4]
   12910:	e3530000 	cmp	r3, #0
   12914:	da00001e 	ble	12994 <_nl_find_domain+0x250>
   12918:	e5943008 	ldr	r3, [r4, #8]
   1291c:	e3530000 	cmp	r3, #0
   12920:	0a000009 	beq	1294c <_nl_find_domain+0x208>
   12924:	e35b0000 	cmp	fp, #0
   12928:	0a000001 	beq	12934 <_nl_find_domain+0x1f0>
   1292c:	e1a00007 	mov	r0, r7
   12930:	eb0042c1 	bl	2343c <__cfree>
   12934:	e31a0001 	tst	sl, #1
   12938:	0affffa8 	beq	127e0 <_nl_find_domain+0x9c>
   1293c:	e59d0034 	ldr	r0, [sp, #52]	; 0x34
   12940:	eb0042bd 	bl	2343c <__cfree>
   12944:	e1a00004 	mov	r0, r4
   12948:	eaffffa5 	b	127e4 <_nl_find_domain+0xa0>
   1294c:	e5940010 	ldr	r0, [r4, #16]
   12950:	e3500000 	cmp	r0, #0
   12954:	0afffff2 	beq	12924 <_nl_find_domain+0x1e0>
   12958:	e2845010 	add	r5, r4, #16
   1295c:	ea000006 	b	1297c <_nl_find_domain+0x238>
   12960:	e4953004 	ldr	r3, [r5], #4
   12964:	e5933008 	ldr	r3, [r3, #8]
   12968:	e3530000 	cmp	r3, #0
   1296c:	1affffec 	bne	12924 <_nl_find_domain+0x1e0>
   12970:	e5950000 	ldr	r0, [r5]
   12974:	e3500000 	cmp	r0, #0
   12978:	0affffe9 	beq	12924 <_nl_find_domain+0x1e0>
   1297c:	e5903004 	ldr	r3, [r0, #4]
   12980:	e3530000 	cmp	r3, #0
   12984:	cafffff5 	bgt	12960 <_nl_find_domain+0x21c>
   12988:	e1a01006 	mov	r1, r6
   1298c:	eb00000b 	bl	129c0 <_nl_load_domain>
   12990:	eafffff2 	b	12960 <_nl_find_domain+0x21c>
   12994:	e1a01006 	mov	r1, r6
   12998:	e1a00004 	mov	r0, r4
   1299c:	eb000007 	bl	129c0 <_nl_load_domain>
   129a0:	eaffffdc 	b	12918 <_nl_find_domain+0x1d4>
   129a4:	e3a00000 	mov	r0, #0
   129a8:	eaffff8d 	b	127e4 <_nl_find_domain+0xa0>
   129ac:	00000000 	.word	0x00000000
   129b0:	00098150 	.word	0x00098150
   129b4:	00098170 	.word	0x00098170
	...

000129c0 <_nl_load_domain>:
   129c0:	e92d4ff0 	push	{r4, r5, r6, r7, r8, r9, sl, fp, lr}
   129c4:	e28db020 	add	fp, sp, #32
   129c8:	e24dd0d4 	sub	sp, sp, #212	; 0xd4
   129cc:	e1a09000 	mov	r9, r0
   129d0:	ebfff92e 	bl	10e90 <__aeabi_read_tp>
   129d4:	e59fafc4 	ldr	sl, [pc, #4036]	; 139a0 <_nl_load_domain+0xfe0>
   129d8:	e2405d13 	sub	r5, r0, #1216	; 0x4c0
   129dc:	e59a3008 	ldr	r3, [sl, #8]
   129e0:	e1a06001 	mov	r6, r1
   129e4:	e1550003 	cmp	r5, r3
   129e8:	0a00000e 	beq	12a28 <_nl_load_domain+0x68>
   129ec:	e3a01001 	mov	r1, #1
   129f0:	e1a0200a 	mov	r2, sl
   129f4:	e3a04000 	mov	r4, #0
   129f8:	e5923000 	ldr	r3, [r2]
   129fc:	e1530004 	cmp	r3, r4
   12a00:	1a000005 	bne	12a1c <_nl_load_domain+0x5c>
   12a04:	e1a00004 	mov	r0, r4
   12a08:	e3e03a0f 	mvn	r3, #61440	; 0xf000
   12a0c:	e1a0e00f 	mov	lr, pc
   12a10:	e243f03f 	sub	pc, r3, #63	; 0x3f
   12a14:	3afffff7 	bcc	129f8 <_nl_load_domain+0x38>
   12a18:	e1a03004 	mov	r3, r4
   12a1c:	e1530004 	cmp	r3, r4
   12a20:	1a000039 	bne	12b0c <_nl_load_domain+0x14c>
   12a24:	e58a5008 	str	r5, [sl, #8]
   12a28:	e59a3004 	ldr	r3, [sl, #4]
   12a2c:	e5991004 	ldr	r1, [r9, #4]
   12a30:	e2833001 	add	r3, r3, #1
   12a34:	e3510000 	cmp	r1, #0
   12a38:	e58a3004 	str	r3, [sl, #4]
   12a3c:	1a000012 	bne	12a8c <_nl_load_domain+0xcc>
   12a40:	e3e02000 	mvn	r2, #0
   12a44:	e5990000 	ldr	r0, [r9]
   12a48:	e5891008 	str	r1, [r9, #8]
   12a4c:	e3500000 	cmp	r0, #0
   12a50:	e5892004 	str	r2, [r9, #4]
   12a54:	0a00000a 	beq	12a84 <_nl_load_domain+0xc4>
   12a58:	e3a07005 	mov	r7, #5
   12a5c:	ef000000 	svc	0x00000000
   12a60:	e3700a01 	cmn	r0, #4096	; 0x1000
   12a64:	e1a04000 	mov	r4, r0
   12a68:	9a00002a 	bls	12b18 <_nl_load_domain+0x158>
   12a6c:	ebfff907 	bl	10e90 <__aeabi_read_tp>
   12a70:	e59f2f2c 	ldr	r2, [pc, #3884]	; 139a4 <_nl_load_domain+0xfe4>
   12a74:	e2644000 	rsb	r4, r4, #0
   12a78:	e79f2002 	ldr	r2, [pc, r2]
   12a7c:	e59a3004 	ldr	r3, [sl, #4]
   12a80:	e7804002 	str	r4, [r0, r2]
   12a84:	e3a02001 	mov	r2, #1
   12a88:	e5892004 	str	r2, [r9, #4]
   12a8c:	e2433001 	sub	r3, r3, #1
   12a90:	e3530000 	cmp	r3, #0
   12a94:	e58a3004 	str	r3, [sl, #4]
   12a98:	1a000019 	bne	12b04 <_nl_load_domain+0x144>
   12a9c:	e1a07003 	mov	r7, r3
   12aa0:	e59f6ef8 	ldr	r6, [pc, #3832]	; 139a0 <_nl_load_domain+0xfe0>
   12aa4:	e58a3008 	str	r3, [sl, #8]
   12aa8:	e59a5000 	ldr	r5, [sl]
   12aac:	e1a01007 	mov	r1, r7
   12ab0:	e1a04005 	mov	r4, r5
   12ab4:	e1a02006 	mov	r2, r6
   12ab8:	e5923000 	ldr	r3, [r2]
   12abc:	e1530004 	cmp	r3, r4
   12ac0:	1a000005 	bne	12adc <_nl_load_domain+0x11c>
   12ac4:	e1a00004 	mov	r0, r4
   12ac8:	e3e03a0f 	mvn	r3, #61440	; 0xf000
   12acc:	e1a0e00f 	mov	lr, pc
   12ad0:	e243f03f 	sub	pc, r3, #63	; 0x3f
   12ad4:	3afffff7 	bcc	12ab8 <_nl_load_domain+0xf8>
   12ad8:	e1a03004 	mov	r3, r4
   12adc:	e1550003 	cmp	r5, r3
   12ae0:	1afffff0 	bne	12aa8 <_nl_load_domain+0xe8>
   12ae4:	e3550001 	cmp	r5, #1
   12ae8:	da000005 	ble	12b04 <_nl_load_domain+0x144>
   12aec:	e59f0eac 	ldr	r0, [pc, #3756]	; 139a0 <_nl_load_domain+0xfe0>
   12af0:	e3a01081 	mov	r1, #129	; 0x81
   12af4:	e3a02001 	mov	r2, #1
   12af8:	e3a03000 	mov	r3, #0
   12afc:	e3a070f0 	mov	r7, #240	; 0xf0
   12b00:	ef000000 	svc	0x00000000
   12b04:	e24bd020 	sub	sp, fp, #32
   12b08:	e8bd8ff0 	pop	{r4, r5, r6, r7, r8, r9, sl, fp, pc}
   12b0c:	e1a0000a 	mov	r0, sl
   12b10:	eb005bfd 	bl	29b0c <__lll_lock_wait_private>
   12b14:	eaffffc2 	b	12a24 <_nl_load_domain+0x64>
   12b18:	e1a01000 	mov	r1, r0
   12b1c:	e24b208c 	sub	r2, fp, #140	; 0x8c
   12b20:	e3a00003 	mov	r0, #3
   12b24:	eb00542a 	bl	27bd4 <___fxstat64>
   12b28:	e3500000 	cmp	r0, #0
   12b2c:	0a000004 	beq	12b44 <_nl_load_domain+0x184>
   12b30:	e1a00004 	mov	r0, r4
   12b34:	e3a07006 	mov	r7, #6
   12b38:	ef000000 	svc	0x00000000
   12b3c:	e59a3004 	ldr	r3, [sl, #4]
   12b40:	eaffffcf 	b	12a84 <_nl_load_domain+0xc4>
   12b44:	e24b305c 	sub	r3, fp, #92	; 0x5c
   12b48:	e893000c 	ldm	r3, {r2, r3}
   12b4c:	e1a08003 	mov	r8, r3
   12b50:	e3a03000 	mov	r3, #0
   12b54:	e1a07002 	mov	r7, r2
   12b58:	e1530008 	cmp	r3, r8
   12b5c:	01520007 	cmpeq	r2, r7
   12b60:	13a03001 	movne	r3, #1
   12b64:	03a03000 	moveq	r3, #0
   12b68:	e357002f 	cmp	r7, #47	; 0x2f
   12b6c:	93833001 	orrls	r3, r3, #1
   12b70:	e3530000 	cmp	r3, #0
   12b74:	e50b709c 	str	r7, [fp, #-156]	; 0xffffff64
   12b78:	e50b8098 	str	r8, [fp, #-152]	; 0xffffff68
   12b7c:	1affffeb 	bne	12b30 <_nl_load_domain+0x170>
   12b80:	e58d3004 	str	r3, [sp, #4]
   12b84:	e58d4000 	str	r4, [sp]
   12b88:	e3a03002 	mov	r3, #2
   12b8c:	e3a02001 	mov	r2, #1
   12b90:	e51b109c 	ldr	r1, [fp, #-156]	; 0xffffff64
   12b94:	eb00574c 	bl	288cc <__mmap>
   12b98:	e3700001 	cmn	r0, #1
   12b9c:	e1a08000 	mov	r8, r0
   12ba0:	0a00007a 	beq	12d90 <_nl_load_domain+0x3d0>
   12ba4:	e1a00004 	mov	r0, r4
   12ba8:	e3a07006 	mov	r7, #6
   12bac:	ef000000 	svc	0x00000000
   12bb0:	e59f2df0 	ldr	r2, [pc, #3568]	; 139a8 <_nl_load_domain+0xfe8>
   12bb4:	e5983000 	ldr	r3, [r8]
   12bb8:	e59f1dec 	ldr	r1, [pc, #3564]	; 139ac <_nl_load_domain+0xfec>
   12bbc:	e0530002 	subs	r0, r3, r2
   12bc0:	13a00001 	movne	r0, #1
   12bc4:	e1530001 	cmp	r3, r1
   12bc8:	11530002 	cmpne	r3, r2
   12bcc:	03a03001 	moveq	r3, #1
   12bd0:	e50b00a0 	str	r0, [fp, #-160]	; 0xffffff60
   12bd4:	050b30c0 	streq	r3, [fp, #-192]	; 0xffffff40
   12bd8:	1a000056 	bne	12d38 <_nl_load_domain+0x378>
   12bdc:	e3a00068 	mov	r0, #104	; 0x68
   12be0:	eb004034 	bl	22cb8 <__libc_malloc>
   12be4:	e2507000 	subs	r7, r0, #0
   12be8:	0a000050 	beq	12d30 <_nl_load_domain+0x370>
   12bec:	e3a00000 	mov	r0, #0
   12bf0:	e51b20c0 	ldr	r2, [fp, #-192]	; 0xffffff40
   12bf4:	e51b30a0 	ldr	r3, [fp, #-160]	; 0xffffff60
   12bf8:	e5872004 	str	r2, [r7, #4]
   12bfc:	e51b209c 	ldr	r2, [fp, #-156]	; 0xffffff64
   12c00:	e1530000 	cmp	r3, r0
   12c04:	e5897008 	str	r7, [r9, #8]
   12c08:	e5878000 	str	r8, [r7]
   12c0c:	e5872008 	str	r2, [r7, #8]
   12c10:	e587300c 	str	r3, [r7, #12]
   12c14:	e5870010 	str	r0, [r7, #16]
   12c18:	0a000078 	beq	12e00 <_nl_load_domain+0x440>
   12c1c:	e5982004 	ldr	r2, [r8, #4]
   12c20:	e0223862 	eor	r3, r2, r2, ror #16
   12c24:	e1a03423 	lsr	r3, r3, #8
   12c28:	e3c33cff 	bic	r3, r3, #65280	; 0xff00
   12c2c:	e0233462 	eor	r3, r3, r2, ror #8
   12c30:	e3530802 	cmp	r3, #131072	; 0x20000
   12c34:	2a000049 	bcs	12d60 <_nl_load_domain+0x3a0>
   12c38:	e598200c 	ldr	r2, [r8, #12]
   12c3c:	e5980010 	ldr	r0, [r8, #16]
   12c40:	e0221862 	eor	r1, r2, r2, ror #16
   12c44:	e1a01421 	lsr	r1, r1, #8
   12c48:	e3c11cff 	bic	r1, r1, #65280	; 0xff00
   12c4c:	e0211462 	eor	r1, r1, r2, ror #8
   12c50:	e0202860 	eor	r2, r0, r0, ror #16
   12c54:	e598c014 	ldr	ip, [r8, #20]
   12c58:	e1a02422 	lsr	r2, r2, #8
   12c5c:	e3c22cff 	bic	r2, r2, #65280	; 0xff00
   12c60:	e0222460 	eor	r2, r2, r0, ror #8
   12c64:	e02c086c 	eor	r0, ip, ip, ror #16
   12c68:	e1a00420 	lsr	r0, r0, #8
   12c6c:	e3c00cff 	bic	r0, r0, #65280	; 0xff00
   12c70:	e020046c 	eor	r0, r0, ip, ror #8
   12c74:	e1a0c000 	mov	ip, r0
   12c78:	e598e008 	ldr	lr, [r8, #8]
   12c7c:	e50b00b8 	str	r0, [fp, #-184]	; 0xffffff48
   12c80:	e02e086e 	eor	r0, lr, lr, ror #16
   12c84:	e1a00420 	lsr	r0, r0, #8
   12c88:	e3c00cff 	bic	r0, r0, #65280	; 0xff00
   12c8c:	e0881001 	add	r1, r8, r1
   12c90:	e0882002 	add	r2, r8, r2
   12c94:	e020046e 	eor	r0, r0, lr, ror #8
   12c98:	e35c0002 	cmp	ip, #2
   12c9c:	e5871018 	str	r1, [r7, #24]
   12ca0:	e587201c 	str	r2, [r7, #28]
   12ca4:	e5870014 	str	r0, [r7, #20]
   12ca8:	e587c02c 	str	ip, [r7, #44]	; 0x2c
   12cac:	8a000109 	bhi	130d8 <_nl_load_domain+0x718>
   12cb0:	e3a02000 	mov	r2, #0
   12cb4:	e1a03803 	lsl	r3, r3, #16
   12cb8:	e1a03823 	lsr	r3, r3, #16
   12cbc:	e1530002 	cmp	r3, r2
   12cc0:	e51b30a0 	ldr	r3, [fp, #-160]	; 0xffffff60
   12cc4:	e5872030 	str	r2, [r7, #48]	; 0x30
   12cc8:	e5873034 	str	r3, [r7, #52]	; 0x34
   12ccc:	1a00042c 	bne	13d84 <_nl_load_domain+0x13c4>
   12cd0:	e3a03000 	mov	r3, #0
   12cd4:	e5873020 	str	r3, [r7, #32]
   12cd8:	e5873024 	str	r3, [r7, #36]	; 0x24
   12cdc:	e5873028 	str	r3, [r7, #40]	; 0x28
   12ce0:	e3a01000 	mov	r1, #0
   12ce4:	e59f3cc4 	ldr	r3, [pc, #3268]	; 139b0 <_nl_load_domain+0xff0>
   12ce8:	e5871038 	str	r1, [r7, #56]	; 0x38
   12cec:	e1530001 	cmp	r3, r1
   12cf0:	e587103c 	str	r1, [r7, #60]	; 0x3c
   12cf4:	0a000001 	beq	12d00 <_nl_load_domain+0x340>
   12cf8:	e2870040 	add	r0, r7, #64	; 0x40
   12cfc:	e1a00000 	nop			; (mov r0, r0)
   12d00:	e24b3094 	sub	r3, fp, #148	; 0x94
   12d04:	e58d3000 	str	r3, [sp]
   12d08:	e1a01006 	mov	r1, r6
   12d0c:	e3a03000 	mov	r3, #0
   12d10:	e59f2c9c 	ldr	r2, [pc, #3228]	; 139b4 <_nl_load_domain+0xff4>
   12d14:	e1a00009 	mov	r0, r9
   12d18:	ebfff984 	bl	11330 <_nl_find_msg>
   12d1c:	e3700001 	cmn	r0, #1
   12d20:	0a000008 	beq	12d48 <_nl_load_domain+0x388>
   12d24:	e2872064 	add	r2, r7, #100	; 0x64
   12d28:	e2871060 	add	r1, r7, #96	; 0x60
   12d2c:	eb000b11 	bl	15978 <__gettext_extract_plural>
   12d30:	e59a3004 	ldr	r3, [sl, #4]
   12d34:	eaffff52 	b	12a84 <_nl_load_domain+0xc4>
   12d38:	e51b109c 	ldr	r1, [fp, #-156]	; 0xffffff64
   12d3c:	e1a00008 	mov	r0, r8
   12d40:	eb00572a 	bl	289f0 <__munmap>
   12d44:	eafffff9 	b	12d30 <_nl_load_domain+0x370>
   12d48:	e59f3c68 	ldr	r3, [pc, #3176]	; 139b8 <_nl_load_domain+0xff8>
   12d4c:	e3530000 	cmp	r3, #0
   12d50:	0a00040b 	beq	13d84 <_nl_load_domain+0x13c4>
   12d54:	e2870040 	add	r0, r7, #64	; 0x40
   12d58:	e1a00000 	nop			; (mov r0, r0)
   12d5c:	e5970010 	ldr	r0, [r7, #16]
   12d60:	eb0041b5 	bl	2343c <__cfree>
   12d64:	e51b30c0 	ldr	r3, [fp, #-192]	; 0xffffff40
   12d68:	e3530000 	cmp	r3, #0
   12d6c:	0a0000df 	beq	130f0 <_nl_load_domain+0x730>
   12d70:	e51b109c 	ldr	r1, [fp, #-156]	; 0xffffff64
   12d74:	e1a00008 	mov	r0, r8
   12d78:	eb00571c 	bl	289f0 <__munmap>
   12d7c:	e1a00007 	mov	r0, r7
   12d80:	eb0041ad 	bl	2343c <__cfree>
   12d84:	e3a03000 	mov	r3, #0
   12d88:	e5893008 	str	r3, [r9, #8]
   12d8c:	eaffffe7 	b	12d30 <_nl_load_domain+0x370>
   12d90:	e51b009c 	ldr	r0, [fp, #-156]	; 0xffffff64
   12d94:	eb003fc7 	bl	22cb8 <__libc_malloc>
   12d98:	e2508000 	subs	r8, r0, #0
   12d9c:	0affff63 	beq	12b30 <_nl_load_domain+0x170>
   12da0:	e1a05008 	mov	r5, r8
   12da4:	e51b309c 	ldr	r3, [fp, #-156]	; 0xffffff64
   12da8:	ea000004 	b	12dc0 <_nl_load_domain+0x400>
   12dac:	e3500000 	cmp	r0, #0
   12db0:	daffff5e 	ble	12b30 <_nl_load_domain+0x170>
   12db4:	e0533000 	subs	r3, r3, r0
   12db8:	e0855000 	add	r5, r5, r0
   12dbc:	0a0001f8 	beq	135a4 <_nl_load_domain+0xbe4>
   12dc0:	e1a00004 	mov	r0, r4
   12dc4:	e1a01005 	mov	r1, r5
   12dc8:	e1a02003 	mov	r2, r3
   12dcc:	e3a07003 	mov	r7, #3
   12dd0:	ef000000 	svc	0x00000000
   12dd4:	e3700a01 	cmn	r0, #4096	; 0x1000
   12dd8:	e1a02000 	mov	r2, r0
   12ddc:	9afffff2 	bls	12dac <_nl_load_domain+0x3ec>
   12de0:	ebfff82a 	bl	10e90 <__aeabi_read_tp>
   12de4:	e59f1bd0 	ldr	r1, [pc, #3024]	; 139bc <_nl_load_domain+0xffc>
   12de8:	e2622000 	rsb	r2, r2, #0
   12dec:	e79f1001 	ldr	r1, [pc, r1]
   12df0:	e3520004 	cmp	r2, #4
   12df4:	e7802001 	str	r2, [r0, r1]
   12df8:	1affff4c 	bne	12b30 <_nl_load_domain+0x170>
   12dfc:	eaffffef 	b	12dc0 <_nl_load_domain+0x400>
   12e00:	e5983004 	ldr	r3, [r8, #4]
   12e04:	e3530802 	cmp	r3, #131072	; 0x20000
   12e08:	2a00014b 	bcs	1333c <_nl_load_domain+0x97c>
   12e0c:	e2880008 	add	r0, r8, #8
   12e10:	e8901007 	ldm	r0, {r0, r1, r2, ip}
   12e14:	e0881001 	add	r1, r8, r1
   12e18:	e0882002 	add	r2, r8, r2
   12e1c:	e35c0002 	cmp	ip, #2
   12e20:	e50bc0b8 	str	ip, [fp, #-184]	; 0xffffff48
   12e24:	e5871018 	str	r1, [r7, #24]
   12e28:	e5870014 	str	r0, [r7, #20]
   12e2c:	e587201c 	str	r2, [r7, #28]
   12e30:	e587c02c 	str	ip, [r7, #44]	; 0x2c
   12e34:	9affff9d 	bls	12cb0 <_nl_load_domain+0x2f0>
   12e38:	e5982018 	ldr	r2, [r8, #24]
   12e3c:	e1a03803 	lsl	r3, r3, #16
   12e40:	e1a03823 	lsr	r3, r3, #16
   12e44:	e3530000 	cmp	r3, #0
   12e48:	e0883002 	add	r3, r8, r2
   12e4c:	e51b20a0 	ldr	r2, [fp, #-160]	; 0xffffff60
   12e50:	e5873030 	str	r3, [r7, #48]	; 0x30
   12e54:	e5872034 	str	r2, [r7, #52]	; 0x34
   12e58:	0affff9c 	beq	12cd0 <_nl_load_domain+0x310>
   12e5c:	e3530000 	cmp	r3, #0
   12e60:	0a0003c7 	beq	13d84 <_nl_load_domain+0x13c4>
   12e64:	e51b30a0 	ldr	r3, [fp, #-160]	; 0xffffff60
   12e68:	e3530000 	cmp	r3, #0
   12e6c:	0a000134 	beq	13344 <_nl_load_domain+0x984>
   12e70:	e5982024 	ldr	r2, [r8, #36]	; 0x24
   12e74:	e0223862 	eor	r3, r2, r2, ror #16
   12e78:	e1a03423 	lsr	r3, r3, #8
   12e7c:	e3c33cff 	bic	r3, r3, #65280	; 0xff00
   12e80:	e0333462 	eors	r3, r3, r2, ror #8
   12e84:	e50b30bc 	str	r3, [fp, #-188]	; 0xffffff44
   12e88:	0affff90 	beq	12cd0 <_nl_load_domain+0x310>
   12e8c:	e598301c 	ldr	r3, [r8, #28]
   12e90:	e5981020 	ldr	r1, [r8, #32]
   12e94:	e0232863 	eor	r2, r3, r3, ror #16
   12e98:	e1a02422 	lsr	r2, r2, #8
   12e9c:	e3c22cff 	bic	r2, r2, #65280	; 0xff00
   12ea0:	e0223463 	eor	r3, r2, r3, ror #8
   12ea4:	e1a00003 	mov	r0, r3
   12ea8:	e1a02103 	lsl	r2, r3, #2
   12eac:	e50b30b4 	str	r3, [fp, #-180]	; 0xffffff4c
   12eb0:	e0213861 	eor	r3, r1, r1, ror #16
   12eb4:	e282200e 	add	r2, r2, #14
   12eb8:	e1a03423 	lsr	r3, r3, #8
   12ebc:	e3c22007 	bic	r2, r2, #7
   12ec0:	e3c33cff 	bic	r3, r3, #65280	; 0xff00
   12ec4:	e04dd002 	sub	sp, sp, r2
   12ec8:	e0233461 	eor	r3, r3, r1, ror #8
   12ecc:	e28d2008 	add	r2, sp, #8
   12ed0:	e0883003 	add	r3, r8, r3
   12ed4:	e3500000 	cmp	r0, #0
   12ed8:	e50b20ac 	str	r2, [fp, #-172]	; 0xffffff54
   12edc:	e50b30a4 	str	r3, [fp, #-164]	; 0xffffff5c
   12ee0:	0a00008f 	beq	13124 <_nl_load_domain+0x764>
   12ee4:	e3a02000 	mov	r2, #0
   12ee8:	e51b10ac 	ldr	r1, [fp, #-172]	; 0xffffff54
   12eec:	e51b30a4 	ldr	r3, [fp, #-164]	; 0xffffff5c
   12ef0:	e2411004 	sub	r1, r1, #4
   12ef4:	e50b90b0 	str	r9, [fp, #-176]	; 0xffffff50
   12ef8:	e50b60c8 	str	r6, [fp, #-200]	; 0xffffff38
   12efc:	e59f0abc 	ldr	r0, [pc, #2748]	; 139c0 <_nl_load_domain+0x1000>
   12f00:	e59feabc 	ldr	lr, [pc, #2748]	; 139c4 <_nl_load_domain+0x1004>
   12f04:	e59f4abc 	ldr	r4, [pc, #2748]	; 139c8 <_nl_load_domain+0x1008>
   12f08:	e59f5abc 	ldr	r5, [pc, #2748]	; 139cc <_nl_load_domain+0x100c>
   12f0c:	e59fcabc 	ldr	ip, [pc, #2748]	; 139d0 <_nl_load_domain+0x1010>
   12f10:	e50b10c4 	str	r1, [fp, #-196]	; 0xffffff3c
   12f14:	e50b70a8 	str	r7, [fp, #-168]	; 0xffffff58
   12f18:	e1a09003 	mov	r9, r3
   12f1c:	e1a06002 	mov	r6, r2
   12f20:	ea000023 	b	12fb4 <_nl_load_domain+0x5f4>
   12f24:	e51b30a4 	ldr	r3, [fp, #-164]	; 0xffffff5c
   12f28:	e5997004 	ldr	r7, [r9, #4]
   12f2c:	e7931186 	ldr	r1, [r3, r6, lsl #3]
   12f30:	e0272867 	eor	r2, r7, r7, ror #16
   12f34:	e1a02422 	lsr	r2, r2, #8
   12f38:	e0213861 	eor	r3, r1, r1, ror #16
   12f3c:	e3c22cff 	bic	r2, r2, #65280	; 0xff00
   12f40:	e1a03423 	lsr	r3, r3, #8
   12f44:	e0222467 	eor	r2, r2, r7, ror #8
   12f48:	e3c33cff 	bic	r3, r3, #65280	; 0xff00
   12f4c:	e0882002 	add	r2, r8, r2
   12f50:	e0233461 	eor	r3, r3, r1, ror #8
   12f54:	e3530000 	cmp	r3, #0
   12f58:	0a000067 	beq	130fc <_nl_load_domain+0x73c>
   12f5c:	e0823003 	add	r3, r2, r3
   12f60:	e5533001 	ldrb	r3, [r3, #-1]
   12f64:	e3530000 	cmp	r3, #0
   12f68:	1a000063 	bne	130fc <_nl_load_domain+0x73c>
   12f6c:	e5d21000 	ldrb	r1, [r2]
   12f70:	e3510050 	cmp	r1, #80	; 0x50
   12f74:	0a000016 	beq	12fd4 <_nl_load_domain+0x614>
   12f78:	e3510049 	cmp	r1, #73	; 0x49
   12f7c:	1a000004 	bne	12f94 <_nl_load_domain+0x5d4>
   12f80:	e5d23001 	ldrb	r3, [r2, #1]
   12f84:	e59f2a48 	ldr	r2, [pc, #2632]	; 139d4 <_nl_load_domain+0x1014>
   12f88:	e3530000 	cmp	r3, #0
   12f8c:	13a02000 	movne	r2, #0
   12f90:	e1a03002 	mov	r3, r2
   12f94:	e51b20b4 	ldr	r2, [fp, #-180]	; 0xffffff4c
   12f98:	e2866001 	add	r6, r6, #1
   12f9c:	e1520006 	cmp	r2, r6
   12fa0:	e51b20c4 	ldr	r2, [fp, #-196]	; 0xffffff3c
   12fa4:	e2899008 	add	r9, r9, #8
   12fa8:	e5a23004 	str	r3, [r2, #4]!
   12fac:	e50b20c4 	str	r2, [fp, #-196]	; 0xffffff3c
   12fb0:	9a000055 	bls	1310c <_nl_load_domain+0x74c>
   12fb4:	e51b30a0 	ldr	r3, [fp, #-160]	; 0xffffff60
   12fb8:	e3530000 	cmp	r3, #0
   12fbc:	1affffd8 	bne	12f24 <_nl_load_domain+0x564>
   12fc0:	e5992004 	ldr	r2, [r9, #4]
   12fc4:	e51b30a4 	ldr	r3, [fp, #-164]	; 0xffffff5c
   12fc8:	e0882002 	add	r2, r8, r2
   12fcc:	e7933186 	ldr	r3, [r3, r6, lsl #3]
   12fd0:	eaffffdf 	b	12f54 <_nl_load_domain+0x594>
   12fd4:	e5d21001 	ldrb	r1, [r2, #1]
   12fd8:	e3510052 	cmp	r1, #82	; 0x52
   12fdc:	1affffec 	bne	12f94 <_nl_load_domain+0x5d4>
   12fe0:	e5d21002 	ldrb	r1, [r2, #2]
   12fe4:	e3510049 	cmp	r1, #73	; 0x49
   12fe8:	1affffe9 	bne	12f94 <_nl_load_domain+0x5d4>
   12fec:	e5d23003 	ldrb	r3, [r2, #3]
   12ff0:	e2437064 	sub	r7, r3, #100	; 0x64
   12ff4:	e20770ff 	and	r7, r7, #255	; 0xff
   12ff8:	e3570011 	cmp	r7, #17
   12ffc:	959f19d4 	ldrls	r1, [pc, #2516]	; 139d8 <_nl_load_domain+0x1018>
   13000:	83a01001 	movhi	r1, #1
   13004:	91a01731 	lsrls	r1, r1, r7
   13008:	e20370df 	and	r7, r3, #223	; 0xdf
   1300c:	e2477058 	sub	r7, r7, #88	; 0x58
   13010:	e16f7f17 	clz	r7, r7
   13014:	92011001 	andls	r1, r1, #1
   13018:	92211001 	eorls	r1, r1, #1
   1301c:	e1a072a7 	lsr	r7, r7, #5
   13020:	e1570001 	cmp	r7, r1
   13024:	33a03000 	movcc	r3, #0
   13028:	3affffd9 	bcc	12f94 <_nl_load_domain+0x5d4>
   1302c:	e5d21004 	ldrb	r1, [r2, #4]
   13030:	e3510038 	cmp	r1, #56	; 0x38
   13034:	0a000321 	beq	13cc0 <_nl_load_domain+0x1300>
   13038:	e3510031 	cmp	r1, #49	; 0x31
   1303c:	0a00030a 	beq	13c6c <_nl_load_domain+0x12ac>
   13040:	e3510033 	cmp	r1, #51	; 0x33
   13044:	0a0002eb 	beq	13bf8 <_nl_load_domain+0x1238>
   13048:	e3510036 	cmp	r1, #54	; 0x36
   1304c:	0a0002d4 	beq	13ba4 <_nl_load_domain+0x11e4>
   13050:	e351004c 	cmp	r1, #76	; 0x4c
   13054:	0a0001ab 	beq	13708 <_nl_load_domain+0xd48>
   13058:	e3510046 	cmp	r1, #70	; 0x46
   1305c:	0a00017e 	beq	1365c <_nl_load_domain+0xc9c>
   13060:	e351004d 	cmp	r1, #77	; 0x4d
   13064:	0a000163 	beq	135f8 <_nl_load_domain+0xc38>
   13068:	e3510050 	cmp	r1, #80	; 0x50
   1306c:	13a03000 	movne	r3, #0
   13070:	1affffc7 	bne	12f94 <_nl_load_domain+0x5d4>
   13074:	e5d21005 	ldrb	r1, [r2, #5]
   13078:	e3510054 	cmp	r1, #84	; 0x54
   1307c:	13a03000 	movne	r3, #0
   13080:	1affffc3 	bne	12f94 <_nl_load_domain+0x5d4>
   13084:	e5d21006 	ldrb	r1, [r2, #6]
   13088:	e3510052 	cmp	r1, #82	; 0x52
   1308c:	13a03000 	movne	r3, #0
   13090:	1affffbf 	bne	12f94 <_nl_load_domain+0x5d4>
   13094:	e5d22007 	ldrb	r2, [r2, #7]
   13098:	e3520000 	cmp	r2, #0
   1309c:	1a000153 	bne	135f0 <_nl_load_domain+0xc30>
   130a0:	e3530064 	cmp	r3, #100	; 0x64
   130a4:	0a000334 	beq	13d7c <_nl_load_domain+0x13bc>
   130a8:	e3530069 	cmp	r3, #105	; 0x69
   130ac:	0a000330 	beq	13d74 <_nl_load_domain+0x13b4>
   130b0:	e353006f 	cmp	r3, #111	; 0x6f
   130b4:	0a00032c 	beq	13d6c <_nl_load_domain+0x13ac>
   130b8:	e3530075 	cmp	r3, #117	; 0x75
   130bc:	0a000328 	beq	13d64 <_nl_load_domain+0x13a4>
   130c0:	e3530078 	cmp	r3, #120	; 0x78
   130c4:	0a000147 	beq	135e8 <_nl_load_domain+0xc28>
   130c8:	e3530058 	cmp	r3, #88	; 0x58
   130cc:	1a000144 	bne	135e4 <_nl_load_domain+0xc24>
   130d0:	e1a0300c 	mov	r3, ip
   130d4:	eaffffae 	b	12f94 <_nl_load_domain+0x5d4>
   130d8:	e5981018 	ldr	r1, [r8, #24]
   130dc:	e0212861 	eor	r2, r1, r1, ror #16
   130e0:	e1a02422 	lsr	r2, r2, #8
   130e4:	e3c22cff 	bic	r2, r2, #65280	; 0xff00
   130e8:	e0222461 	eor	r2, r2, r1, ror #8
   130ec:	eaffff52 	b	12e3c <_nl_load_domain+0x47c>
   130f0:	e1a00008 	mov	r0, r8
   130f4:	eb0040d0 	bl	2343c <__cfree>
   130f8:	eaffff1f 	b	12d7c <_nl_load_domain+0x3bc>
   130fc:	e51b70a8 	ldr	r7, [fp, #-168]	; 0xffffff58
   13100:	e51b90b0 	ldr	r9, [fp, #-176]	; 0xffffff50
   13104:	e5970010 	ldr	r0, [r7, #16]
   13108:	eaffff14 	b	12d60 <_nl_load_domain+0x3a0>
   1310c:	e51b30a0 	ldr	r3, [fp, #-160]	; 0xffffff60
   13110:	e51b70a8 	ldr	r7, [fp, #-168]	; 0xffffff58
   13114:	e3530000 	cmp	r3, #0
   13118:	e51b90b0 	ldr	r9, [fp, #-176]	; 0xffffff50
   1311c:	e51b60c8 	ldr	r6, [fp, #-200]	; 0xffffff38
   13120:	0a000099 	beq	1338c <_nl_load_domain+0x9cc>
   13124:	e5980028 	ldr	r0, [r8, #40]	; 0x28
   13128:	e598102c 	ldr	r1, [r8, #44]	; 0x2c
   1312c:	e0203860 	eor	r3, r0, r0, ror #16
   13130:	e1a03423 	lsr	r3, r3, #8
   13134:	e0212861 	eor	r2, r1, r1, ror #16
   13138:	e3c33cff 	bic	r3, r3, #65280	; 0xff00
   1313c:	e1a02422 	lsr	r2, r2, #8
   13140:	e0233460 	eor	r3, r3, r0, ror #8
   13144:	e3c22cff 	bic	r2, r2, #65280	; 0xff00
   13148:	e0883003 	add	r3, r8, r3
   1314c:	e0222461 	eor	r2, r2, r1, ror #8
   13150:	e3a01000 	mov	r1, #0
   13154:	e1a0c003 	mov	ip, r3
   13158:	e0882002 	add	r2, r8, r2
   1315c:	e50b30b0 	str	r3, [fp, #-176]	; 0xffffff50
   13160:	e50b10c4 	str	r1, [fp, #-196]	; 0xffffff3c
   13164:	e50b20a8 	str	r2, [fp, #-168]	; 0xffffff58
   13168:	e50b10a4 	str	r1, [fp, #-164]	; 0xffffff5c
   1316c:	e1a03007 	mov	r3, r7
   13170:	e1a01006 	mov	r1, r6
   13174:	e1a07002 	mov	r7, r2
   13178:	e1a02009 	mov	r2, r9
   1317c:	e1a09008 	mov	r9, r8
   13180:	e1a0800c 	mov	r8, ip
   13184:	e51b00b8 	ldr	r0, [fp, #-184]	; 0xffffff48
   13188:	e1a00100 	lsl	r0, r0, #2
   1318c:	e50b00cc 	str	r0, [fp, #-204]	; 0xffffff34
   13190:	e50b00b8 	str	r0, [fp, #-184]	; 0xffffff48
   13194:	e3a06000 	mov	r6, #0
   13198:	e51b00a0 	ldr	r0, [fp, #-160]	; 0xffffff60
   1319c:	e3500000 	cmp	r0, #0
   131a0:	0a00005d 	beq	1331c <_nl_load_domain+0x95c>
   131a4:	e3560000 	cmp	r6, #0
   131a8:	05985000 	ldreq	r5, [r8]
   131ac:	15975000 	ldrne	r5, [r7]
   131b0:	e0250865 	eor	r0, r5, r5, ror #16
   131b4:	e1a00420 	lsr	r0, r0, #8
   131b8:	e3c00cff 	bic	r0, r0, #65280	; 0xff00
   131bc:	e0205465 	eor	r5, r0, r5, ror #8
   131c0:	e0895005 	add	r5, r9, r5
   131c4:	e595c008 	ldr	ip, [r5, #8]
   131c8:	e02c086c 	eor	r0, ip, ip, ror #16
   131cc:	e1a00420 	lsr	r0, r0, #8
   131d0:	e3c00cff 	bic	r0, r0, #65280	; 0xff00
   131d4:	e020046c 	eor	r0, r0, ip, ror #8
   131d8:	e2900001 	adds	r0, r0, #1
   131dc:	13a00001 	movne	r0, #1
   131e0:	e3500000 	cmp	r0, #0
   131e4:	0a000027 	beq	13288 <_nl_load_domain+0x8c8>
   131e8:	e50b80c8 	str	r8, [fp, #-200]	; 0xffffff38
   131ec:	e3a00000 	mov	r0, #0
   131f0:	e1a08007 	mov	r8, r7
   131f4:	e285500c 	add	r5, r5, #12
   131f8:	e1a07006 	mov	r7, r6
   131fc:	e1a06003 	mov	r6, r3
   13200:	ea000019 	b	1326c <_nl_load_domain+0x8ac>
   13204:	e024c864 	eor	ip, r4, r4, ror #16
   13208:	e515e004 	ldr	lr, [r5, #-4]
   1320c:	e1a0c42c 	lsr	ip, ip, #8
   13210:	e3ccccff 	bic	ip, ip, #65280	; 0xff00
   13214:	e02c4464 	eor	r4, ip, r4, ror #8
   13218:	e02ec86e 	eor	ip, lr, lr, ror #16
   1321c:	e1a0c42c 	lsr	ip, ip, #8
   13220:	e3ccccff 	bic	ip, ip, #65280	; 0xff00
   13224:	e0804004 	add	r4, r0, r4
   13228:	e02cc46e 	eor	ip, ip, lr, ror #8
   1322c:	e37c0001 	cmn	ip, #1
   13230:	0a00005e 	beq	133b0 <_nl_load_domain+0x9f0>
   13234:	e51b30b4 	ldr	r3, [fp, #-180]	; 0xffffff4c
   13238:	e15c0003 	cmp	ip, r3
   1323c:	2a000056 	bcs	1339c <_nl_load_domain+0x9dc>
   13240:	e51b30ac 	ldr	r3, [fp, #-172]	; 0xffffff54
   13244:	e2855008 	add	r5, r5, #8
   13248:	e793010c 	ldr	r0, [r3, ip, lsl #2]
   1324c:	e3500000 	cmp	r0, #0
   13250:	0a00005b 	beq	133c4 <_nl_load_domain+0xa04>
   13254:	e50b10d4 	str	r1, [fp, #-212]	; 0xffffff2c
   13258:	e50b20d0 	str	r2, [fp, #-208]	; 0xffffff30
   1325c:	eb0048e3 	bl	255f0 <strlen>
   13260:	e51b20d0 	ldr	r2, [fp, #-208]	; 0xffffff30
   13264:	e51b10d4 	ldr	r1, [fp, #-212]	; 0xffffff2c
   13268:	e0800004 	add	r0, r0, r4
   1326c:	e51b30a0 	ldr	r3, [fp, #-160]	; 0xffffff60
   13270:	e5154008 	ldr	r4, [r5, #-8]
   13274:	e3530000 	cmp	r3, #0
   13278:	1affffe1 	bne	13204 <_nl_load_domain+0x844>
   1327c:	e515c004 	ldr	ip, [r5, #-4]
   13280:	e0804004 	add	r4, r0, r4
   13284:	eaffffe8 	b	1322c <_nl_load_domain+0x86c>
   13288:	e3a04000 	mov	r4, #0
   1328c:	e24b0094 	sub	r0, fp, #148	; 0x94
   13290:	e7804106 	str	r4, [r0, r6, lsl #2]
   13294:	e2866001 	add	r6, r6, #1
   13298:	e3560002 	cmp	r6, #2
   1329c:	1affffbd 	bne	13198 <_nl_load_domain+0x7d8>
   132a0:	e51bc090 	ldr	ip, [fp, #-144]	; 0xffffff70
   132a4:	e51b0094 	ldr	r0, [fp, #-148]	; 0xffffff6c
   132a8:	e51be0a4 	ldr	lr, [fp, #-164]	; 0xffffff5c
   132ac:	e080000c 	add	r0, r0, ip
   132b0:	e51bc0b8 	ldr	ip, [fp, #-184]	; 0xffffff48
   132b4:	e28ee001 	add	lr, lr, #1
   132b8:	e08c0000 	add	r0, ip, r0
   132bc:	e50be0a4 	str	lr, [fp, #-164]	; 0xffffff5c
   132c0:	e50b00b8 	str	r0, [fp, #-184]	; 0xffffff48
   132c4:	e51b00c4 	ldr	r0, [fp, #-196]	; 0xffffff3c
   132c8:	e51bc0bc 	ldr	ip, [fp, #-188]	; 0xffffff44
   132cc:	e2800001 	add	r0, r0, #1
   132d0:	e15c0000 	cmp	ip, r0
   132d4:	e50b00c4 	str	r0, [fp, #-196]	; 0xffffff3c
   132d8:	e2888004 	add	r8, r8, #4
   132dc:	e2877004 	add	r7, r7, #4
   132e0:	8affffab 	bhi	13194 <_nl_load_domain+0x7d4>
   132e4:	e1a07003 	mov	r7, r3
   132e8:	e51b30a4 	ldr	r3, [fp, #-164]	; 0xffffff5c
   132ec:	e1a08009 	mov	r8, r9
   132f0:	e1a09002 	mov	r9, r2
   132f4:	e51b20b8 	ldr	r2, [fp, #-184]	; 0xffffff48
   132f8:	e3530000 	cmp	r3, #0
   132fc:	e1a06001 	mov	r6, r1
   13300:	e0820203 	add	r0, r2, r3, lsl #4
   13304:	1a000032 	bne	133d4 <_nl_load_domain+0xa14>
   13308:	e51b30a4 	ldr	r3, [fp, #-164]	; 0xffffff5c
   1330c:	e5873020 	str	r3, [r7, #32]
   13310:	e5873024 	str	r3, [r7, #36]	; 0x24
   13314:	e5873028 	str	r3, [r7, #40]	; 0x28
   13318:	eafffe70 	b	12ce0 <_nl_load_domain+0x320>
   1331c:	e3560000 	cmp	r6, #0
   13320:	05985000 	ldreq	r5, [r8]
   13324:	15975000 	ldrne	r5, [r7]
   13328:	e0895005 	add	r5, r9, r5
   1332c:	e5950008 	ldr	r0, [r5, #8]
   13330:	e2900001 	adds	r0, r0, #1
   13334:	13a00001 	movne	r0, #1
   13338:	eaffffa8 	b	131e0 <_nl_load_domain+0x820>
   1333c:	e51b00a0 	ldr	r0, [fp, #-160]	; 0xffffff60
   13340:	eafffe86 	b	12d60 <_nl_load_domain+0x3a0>
   13344:	e5983024 	ldr	r3, [r8, #36]	; 0x24
   13348:	e3530000 	cmp	r3, #0
   1334c:	e50b30bc 	str	r3, [fp, #-188]	; 0xffffff44
   13350:	0afffe5e 	beq	12cd0 <_nl_load_domain+0x310>
   13354:	e598301c 	ldr	r3, [r8, #28]
   13358:	e5982020 	ldr	r2, [r8, #32]
   1335c:	e1a01003 	mov	r1, r3
   13360:	e50b30b4 	str	r3, [fp, #-180]	; 0xffffff4c
   13364:	e1a03103 	lsl	r3, r3, #2
   13368:	e283300e 	add	r3, r3, #14
   1336c:	e3c33007 	bic	r3, r3, #7
   13370:	e04dd003 	sub	sp, sp, r3
   13374:	e28d3008 	add	r3, sp, #8
   13378:	e50b30ac 	str	r3, [fp, #-172]	; 0xffffff54
   1337c:	e3510000 	cmp	r1, #0
   13380:	e0883002 	add	r3, r8, r2
   13384:	e50b30a4 	str	r3, [fp, #-164]	; 0xffffff5c
   13388:	1afffed5 	bne	12ee4 <_nl_load_domain+0x524>
   1338c:	e5983028 	ldr	r3, [r8, #40]	; 0x28
   13390:	e598202c 	ldr	r2, [r8, #44]	; 0x2c
   13394:	e0883003 	add	r3, r8, r3
   13398:	eaffff6c 	b	13150 <_nl_load_domain+0x790>
   1339c:	e1a08009 	mov	r8, r9
   133a0:	e1a07006 	mov	r7, r6
   133a4:	e1a09002 	mov	r9, r2
   133a8:	e5960010 	ldr	r0, [r6, #16]
   133ac:	eafffe6b 	b	12d60 <_nl_load_domain+0x3a0>
   133b0:	e1a03006 	mov	r3, r6
   133b4:	e1a06007 	mov	r6, r7
   133b8:	e1a07008 	mov	r7, r8
   133bc:	e51b80c8 	ldr	r8, [fp, #-200]	; 0xffffff38
   133c0:	eaffffb1 	b	1328c <_nl_load_domain+0x8cc>
   133c4:	e1a07008 	mov	r7, r8
   133c8:	e1a03006 	mov	r3, r6
   133cc:	e51b80c8 	ldr	r8, [fp, #-200]	; 0xffffff38
   133d0:	eaffffbb 	b	132c4 <_nl_load_domain+0x904>
   133d4:	eb003e37 	bl	22cb8 <__libc_malloc>
   133d8:	e2503000 	subs	r3, r0, #0
   133dc:	e50b30b4 	str	r3, [fp, #-180]	; 0xffffff4c
   133e0:	0a000267 	beq	13d84 <_nl_load_domain+0x13c4>
   133e4:	e3a03000 	mov	r3, #0
   133e8:	e51b10a4 	ldr	r1, [fp, #-164]	; 0xffffff5c
   133ec:	e50b30a0 	str	r3, [fp, #-160]	; 0xffffff60
   133f0:	e50b30d4 	str	r3, [fp, #-212]	; 0xffffff2c
   133f4:	e51b30b4 	ldr	r3, [fp, #-180]	; 0xffffff4c
   133f8:	e51b00cc 	ldr	r0, [fp, #-204]	; 0xffffff34
   133fc:	e0832201 	add	r2, r3, r1, lsl #4
   13400:	e50b20b8 	str	r2, [fp, #-184]	; 0xffffff48
   13404:	e0822000 	add	r2, r2, r0
   13408:	e50b20cc 	str	r2, [fp, #-204]	; 0xffffff34
   1340c:	e1a02001 	mov	r2, r1
   13410:	e5873010 	str	r3, [r7, #16]
   13414:	e0833181 	add	r3, r3, r1, lsl #3
   13418:	e50b30d8 	str	r3, [fp, #-216]	; 0xffffff28
   1341c:	e50b70c8 	str	r7, [fp, #-200]	; 0xffffff38
   13420:	e50b90e0 	str	r9, [fp, #-224]	; 0xffffff20
   13424:	e50b60e4 	str	r6, [fp, #-228]	; 0xffffff1c
   13428:	e51b30c8 	ldr	r3, [fp, #-200]	; 0xffffff38
   1342c:	e3a00000 	mov	r0, #0
   13430:	e593300c 	ldr	r3, [r3, #12]
   13434:	e51b10a8 	ldr	r1, [fp, #-168]	; 0xffffff58
   13438:	e1a0e003 	mov	lr, r3
   1343c:	e51bc0b0 	ldr	ip, [fp, #-176]	; 0xffffff50
   13440:	e50b30c4 	str	r3, [fp, #-196]	; 0xffffff3c
   13444:	e35e0000 	cmp	lr, #0
   13448:	0a000278 	beq	13e30 <_nl_load_domain+0x1470>
   1344c:	e3500000 	cmp	r0, #0
   13450:	059c2000 	ldreq	r2, [ip]
   13454:	15912000 	ldrne	r2, [r1]
   13458:	e0223862 	eor	r3, r2, r2, ror #16
   1345c:	e1a03423 	lsr	r3, r3, #8
   13460:	e3c33cff 	bic	r3, r3, #65280	; 0xff00
   13464:	e0233462 	eor	r3, r3, r2, ror #8
   13468:	e0883003 	add	r3, r8, r3
   1346c:	e5934008 	ldr	r4, [r3, #8]
   13470:	e0242864 	eor	r2, r4, r4, ror #16
   13474:	e1a02422 	lsr	r2, r2, #8
   13478:	e3c22cff 	bic	r2, r2, #65280	; 0xff00
   1347c:	e0222464 	eor	r2, r2, r4, ror #8
   13480:	e2922001 	adds	r2, r2, #1
   13484:	13a02001 	movne	r2, #1
   13488:	e3520000 	cmp	r2, #0
   1348c:	0a00000f 	beq	134d0 <_nl_load_domain+0xb10>
   13490:	e2833004 	add	r3, r3, #4
   13494:	ea000004 	b	134ac <_nl_load_domain+0xaec>
   13498:	e51b40ac 	ldr	r4, [fp, #-172]	; 0xffffff54
   1349c:	e7942102 	ldr	r2, [r4, r2, lsl #2]
   134a0:	e3520000 	cmp	r2, #0
   134a4:	0a00023b 	beq	13d98 <_nl_load_domain+0x13d8>
   134a8:	e2833008 	add	r3, r3, #8
   134ac:	e35e0000 	cmp	lr, #0
   134b0:	15934004 	ldrne	r4, [r3, #4]
   134b4:	05932004 	ldreq	r2, [r3, #4]
   134b8:	10242864 	eorne	r2, r4, r4, ror #16
   134bc:	11a02422 	lsrne	r2, r2, #8
   134c0:	13c22cff 	bicne	r2, r2, #65280	; 0xff00
   134c4:	10222464 	eorne	r2, r2, r4, ror #8
   134c8:	e3720001 	cmn	r2, #1
   134cc:	1afffff1 	bne	13498 <_nl_load_domain+0xad8>
   134d0:	e2800001 	add	r0, r0, #1
   134d4:	e3500002 	cmp	r0, #2
   134d8:	1affffd9 	bne	13444 <_nl_load_domain+0xa84>
   134dc:	e3a03000 	mov	r3, #0
   134e0:	e51b20a0 	ldr	r2, [fp, #-160]	; 0xffffff60
   134e4:	e51b10b4 	ldr	r1, [fp, #-180]	; 0xffffff4c
   134e8:	e1a02182 	lsl	r2, r2, #3
   134ec:	e0811002 	add	r1, r1, r2
   134f0:	e50b10d0 	str	r1, [fp, #-208]	; 0xffffff30
   134f4:	e51b10d8 	ldr	r1, [fp, #-216]	; 0xffffff28
   134f8:	e0812002 	add	r2, r1, r2
   134fc:	e50b20dc 	str	r2, [fp, #-220]	; 0xffffff24
   13500:	e51b20c4 	ldr	r2, [fp, #-196]	; 0xffffff3c
   13504:	e3520000 	cmp	r2, #0
   13508:	0a0002b0 	beq	13fd0 <_nl_load_domain+0x1610>
   1350c:	e3530000 	cmp	r3, #0
   13510:	051b20b0 	ldreq	r2, [fp, #-176]	; 0xffffff50
   13514:	151b20a8 	ldrne	r2, [fp, #-168]	; 0xffffff58
   13518:	05924000 	ldreq	r4, [r2]
   1351c:	15924000 	ldrne	r4, [r2]
   13520:	051b90d0 	ldreq	r9, [fp, #-208]	; 0xffffff30
   13524:	e0242864 	eor	r2, r4, r4, ror #16
   13528:	e1a02422 	lsr	r2, r2, #8
   1352c:	e3c22cff 	bic	r2, r2, #65280	; 0xff00
   13530:	e0224464 	eor	r4, r2, r4, ror #8
   13534:	e7985004 	ldr	r5, [r8, r4]
   13538:	e0884004 	add	r4, r8, r4
   1353c:	e0252865 	eor	r2, r5, r5, ror #16
   13540:	e1a02422 	lsr	r2, r2, #8
   13544:	e5941008 	ldr	r1, [r4, #8]
   13548:	e3c22cff 	bic	r2, r2, #65280	; 0xff00
   1354c:	e0222465 	eor	r2, r2, r5, ror #8
   13550:	e0885002 	add	r5, r8, r2
   13554:	e0212861 	eor	r2, r1, r1, ror #16
   13558:	e1a02422 	lsr	r2, r2, #8
   1355c:	e3c22cff 	bic	r2, r2, #65280	; 0xff00
   13560:	e0222461 	eor	r2, r2, r1, ror #8
   13564:	151b90dc 	ldrne	r9, [fp, #-220]	; 0xffffff24
   13568:	e3720001 	cmn	r2, #1
   1356c:	1a00026e 	bne	13f2c <_nl_load_domain+0x156c>
   13570:	e5941004 	ldr	r1, [r4, #4]
   13574:	e0212861 	eor	r2, r1, r1, ror #16
   13578:	e1a02422 	lsr	r2, r2, #8
   1357c:	e3c22cff 	bic	r2, r2, #65280	; 0xff00
   13580:	e0222461 	eor	r2, r2, r1, ror #8
   13584:	e8890024 	stm	r9, {r2, r5}
   13588:	e2833001 	add	r3, r3, #1
   1358c:	e3530002 	cmp	r3, #2
   13590:	0a0001fd 	beq	13d8c <_nl_load_domain+0x13cc>
   13594:	e51b20c8 	ldr	r2, [fp, #-200]	; 0xffffff38
   13598:	e592200c 	ldr	r2, [r2, #12]
   1359c:	e50b20c4 	str	r2, [fp, #-196]	; 0xffffff3c
   135a0:	eaffffd6 	b	13500 <_nl_load_domain+0xb40>
   135a4:	e1a00004 	mov	r0, r4
   135a8:	e3a07006 	mov	r7, #6
   135ac:	ef000000 	svc	0x00000000
   135b0:	e59f13f0 	ldr	r1, [pc, #1008]	; 139a8 <_nl_load_domain+0xfe8>
   135b4:	e5982000 	ldr	r2, [r8]
   135b8:	e59f03ec 	ldr	r0, [pc, #1004]	; 139ac <_nl_load_domain+0xfec>
   135bc:	e052c001 	subs	ip, r2, r1
   135c0:	13a0c001 	movne	ip, #1
   135c4:	e1520000 	cmp	r2, r0
   135c8:	11520001 	cmpne	r2, r1
   135cc:	e50bc0a0 	str	ip, [fp, #-160]	; 0xffffff60
   135d0:	050b30c0 	streq	r3, [fp, #-192]	; 0xffffff40
   135d4:	0afffd80 	beq	12bdc <_nl_load_domain+0x21c>
   135d8:	e1a00008 	mov	r0, r8
   135dc:	eb003f96 	bl	2343c <__cfree>
   135e0:	eafffdd2 	b	12d30 <_nl_load_domain+0x370>
   135e4:	eb00092f 	bl	15aa8 <abort>
   135e8:	e59f3404 	ldr	r3, [pc, #1028]	; 139f4 <_nl_load_domain+0x1034>
   135ec:	eafffe68 	b	12f94 <_nl_load_domain+0x5d4>
   135f0:	e3a03000 	mov	r3, #0
   135f4:	eafffe66 	b	12f94 <_nl_load_domain+0x5d4>
   135f8:	e5d21005 	ldrb	r1, [r2, #5]
   135fc:	e3510041 	cmp	r1, #65	; 0x41
   13600:	13a03000 	movne	r3, #0
   13604:	1afffe62 	bne	12f94 <_nl_load_domain+0x5d4>
   13608:	e5d21006 	ldrb	r1, [r2, #6]
   1360c:	e3510058 	cmp	r1, #88	; 0x58
   13610:	13a03000 	movne	r3, #0
   13614:	1afffe5e 	bne	12f94 <_nl_load_domain+0x5d4>
   13618:	e5d22007 	ldrb	r2, [r2, #7]
   1361c:	e3520000 	cmp	r2, #0
   13620:	1a00015d 	bne	13b9c <_nl_load_domain+0x11dc>
   13624:	e3530064 	cmp	r3, #100	; 0x64
   13628:	0a000159 	beq	13b94 <_nl_load_domain+0x11d4>
   1362c:	e3530069 	cmp	r3, #105	; 0x69
   13630:	0a000155 	beq	13b8c <_nl_load_domain+0x11cc>
   13634:	e353006f 	cmp	r3, #111	; 0x6f
   13638:	0a000151 	beq	13b84 <_nl_load_domain+0x11c4>
   1363c:	e3530075 	cmp	r3, #117	; 0x75
   13640:	0a000141 	beq	13b4c <_nl_load_domain+0x118c>
   13644:	e3530078 	cmp	r3, #120	; 0x78
   13648:	0a00013d 	beq	13b44 <_nl_load_domain+0x1184>
   1364c:	e3530058 	cmp	r3, #88	; 0x58
   13650:	1affffe3 	bne	135e4 <_nl_load_domain+0xc24>
   13654:	e59f3380 	ldr	r3, [pc, #896]	; 139dc <_nl_load_domain+0x101c>
   13658:	eafffe4d 	b	12f94 <_nl_load_domain+0x5d4>
   1365c:	e5d21005 	ldrb	r1, [r2, #5]
   13660:	e3510041 	cmp	r1, #65	; 0x41
   13664:	13a03000 	movne	r3, #0
   13668:	1afffe49 	bne	12f94 <_nl_load_domain+0x5d4>
   1366c:	e5d21006 	ldrb	r1, [r2, #6]
   13670:	e3510053 	cmp	r1, #83	; 0x53
   13674:	13a03000 	movne	r3, #0
   13678:	1afffe45 	bne	12f94 <_nl_load_domain+0x5d4>
   1367c:	e5d21007 	ldrb	r1, [r2, #7]
   13680:	e3510054 	cmp	r1, #84	; 0x54
   13684:	13a03000 	movne	r3, #0
   13688:	1afffe41 	bne	12f94 <_nl_load_domain+0x5d4>
   1368c:	e5d21008 	ldrb	r1, [r2, #8]
   13690:	e3510038 	cmp	r1, #56	; 0x38
   13694:	0a000101 	beq	13aa0 <_nl_load_domain+0x10e0>
   13698:	e3510031 	cmp	r1, #49	; 0x31
   1369c:	0a0000ea 	beq	13a4c <_nl_load_domain+0x108c>
   136a0:	e3510033 	cmp	r1, #51	; 0x33
   136a4:	0a0000d3 	beq	139f8 <_nl_load_domain+0x1038>
   136a8:	e3510036 	cmp	r1, #54	; 0x36
   136ac:	13a03000 	movne	r3, #0
   136b0:	1afffe37 	bne	12f94 <_nl_load_domain+0x5d4>
   136b4:	e5d21009 	ldrb	r1, [r2, #9]
   136b8:	e3510034 	cmp	r1, #52	; 0x34
   136bc:	13a03000 	movne	r3, #0
   136c0:	1afffe33 	bne	12f94 <_nl_load_domain+0x5d4>
   136c4:	e5d2200a 	ldrb	r2, [r2, #10]
   136c8:	e3520000 	cmp	r2, #0
   136cc:	1a0000b1 	bne	13998 <_nl_load_domain+0xfd8>
   136d0:	e3530064 	cmp	r3, #100	; 0x64
   136d4:	0a0000ad 	beq	13990 <_nl_load_domain+0xfd0>
   136d8:	e3530069 	cmp	r3, #105	; 0x69
   136dc:	0a0000a9 	beq	13988 <_nl_load_domain+0xfc8>
   136e0:	e353006f 	cmp	r3, #111	; 0x6f
   136e4:	0a000099 	beq	13950 <_nl_load_domain+0xf90>
   136e8:	e3530075 	cmp	r3, #117	; 0x75
   136ec:	0a000095 	beq	13948 <_nl_load_domain+0xf88>
   136f0:	e3530078 	cmp	r3, #120	; 0x78
   136f4:	0a000032 	beq	137c4 <_nl_load_domain+0xe04>
   136f8:	e3530058 	cmp	r3, #88	; 0x58
   136fc:	1affffb8 	bne	135e4 <_nl_load_domain+0xc24>
   13700:	e59f32d4 	ldr	r3, [pc, #724]	; 139dc <_nl_load_domain+0x101c>
   13704:	eafffe22 	b	12f94 <_nl_load_domain+0x5d4>
   13708:	e5d21005 	ldrb	r1, [r2, #5]
   1370c:	e3510045 	cmp	r1, #69	; 0x45
   13710:	13a03000 	movne	r3, #0
   13714:	1afffe1e 	bne	12f94 <_nl_load_domain+0x5d4>
   13718:	e5d21006 	ldrb	r1, [r2, #6]
   1371c:	e3510041 	cmp	r1, #65	; 0x41
   13720:	13a03000 	movne	r3, #0
   13724:	1afffe1a 	bne	12f94 <_nl_load_domain+0x5d4>
   13728:	e5d21007 	ldrb	r1, [r2, #7]
   1372c:	e3510053 	cmp	r1, #83	; 0x53
   13730:	13a03000 	movne	r3, #0
   13734:	1afffe16 	bne	12f94 <_nl_load_domain+0x5d4>
   13738:	e5d21008 	ldrb	r1, [r2, #8]
   1373c:	e3510054 	cmp	r1, #84	; 0x54
   13740:	13a03000 	movne	r3, #0
   13744:	1afffe12 	bne	12f94 <_nl_load_domain+0x5d4>
   13748:	e5d21009 	ldrb	r1, [r2, #9]
   1374c:	e3510038 	cmp	r1, #56	; 0x38
   13750:	0a000053 	beq	138a4 <_nl_load_domain+0xee4>
   13754:	e3510031 	cmp	r1, #49	; 0x31
   13758:	0a00003c 	beq	13850 <_nl_load_domain+0xe90>
   1375c:	e3510033 	cmp	r1, #51	; 0x33
   13760:	0a000025 	beq	137fc <_nl_load_domain+0xe3c>
   13764:	e3510036 	cmp	r1, #54	; 0x36
   13768:	13a03000 	movne	r3, #0
   1376c:	1afffe08 	bne	12f94 <_nl_load_domain+0x5d4>
   13770:	e5d2100a 	ldrb	r1, [r2, #10]
   13774:	e3510034 	cmp	r1, #52	; 0x34
   13778:	13a03000 	movne	r3, #0
   1377c:	1afffe04 	bne	12f94 <_nl_load_domain+0x5d4>
   13780:	e5d2200b 	ldrb	r2, [r2, #11]
   13784:	e3520000 	cmp	r2, #0
   13788:	1a000019 	bne	137f4 <_nl_load_domain+0xe34>
   1378c:	e3530064 	cmp	r3, #100	; 0x64
   13790:	0a000015 	beq	137ec <_nl_load_domain+0xe2c>
   13794:	e3530069 	cmp	r3, #105	; 0x69
   13798:	0a000011 	beq	137e4 <_nl_load_domain+0xe24>
   1379c:	e353006f 	cmp	r3, #111	; 0x6f
   137a0:	0a00000d 	beq	137dc <_nl_load_domain+0xe1c>
   137a4:	e3530075 	cmp	r3, #117	; 0x75
   137a8:	0a000009 	beq	137d4 <_nl_load_domain+0xe14>
   137ac:	e3530078 	cmp	r3, #120	; 0x78
   137b0:	0a000005 	beq	137cc <_nl_load_domain+0xe0c>
   137b4:	e3530058 	cmp	r3, #88	; 0x58
   137b8:	1affff89 	bne	135e4 <_nl_load_domain+0xc24>
   137bc:	e59f3218 	ldr	r3, [pc, #536]	; 139dc <_nl_load_domain+0x101c>
   137c0:	eafffdf3 	b	12f94 <_nl_load_domain+0x5d4>
   137c4:	e59f3214 	ldr	r3, [pc, #532]	; 139e0 <_nl_load_domain+0x1020>
   137c8:	eafffdf1 	b	12f94 <_nl_load_domain+0x5d4>
   137cc:	e59f320c 	ldr	r3, [pc, #524]	; 139e0 <_nl_load_domain+0x1020>
   137d0:	eafffdef 	b	12f94 <_nl_load_domain+0x5d4>
   137d4:	e59f3208 	ldr	r3, [pc, #520]	; 139e4 <_nl_load_domain+0x1024>
   137d8:	eafffded 	b	12f94 <_nl_load_domain+0x5d4>
   137dc:	e59f3208 	ldr	r3, [pc, #520]	; 139ec <_nl_load_domain+0x102c>
   137e0:	eafffdeb 	b	12f94 <_nl_load_domain+0x5d4>
   137e4:	e59f3204 	ldr	r3, [pc, #516]	; 139f0 <_nl_load_domain+0x1030>
   137e8:	eafffde9 	b	12f94 <_nl_load_domain+0x5d4>
   137ec:	e59f31f4 	ldr	r3, [pc, #500]	; 139e8 <_nl_load_domain+0x1028>
   137f0:	eafffde7 	b	12f94 <_nl_load_domain+0x5d4>
   137f4:	e3a03000 	mov	r3, #0
   137f8:	eafffde5 	b	12f94 <_nl_load_domain+0x5d4>
   137fc:	e5d2100a 	ldrb	r1, [r2, #10]
   13800:	e3510032 	cmp	r1, #50	; 0x32
   13804:	13a03000 	movne	r3, #0
   13808:	1afffde1 	bne	12f94 <_nl_load_domain+0x5d4>
   1380c:	e5d2200b 	ldrb	r2, [r2, #11]
   13810:	e3520000 	cmp	r2, #0
   13814:	1a000059 	bne	13980 <_nl_load_domain+0xfc0>
   13818:	e3530064 	cmp	r3, #100	; 0x64
   1381c:	0a000055 	beq	13978 <_nl_load_domain+0xfb8>
   13820:	e3530069 	cmp	r3, #105	; 0x69
   13824:	0a000051 	beq	13970 <_nl_load_domain+0xfb0>
   13828:	e353006f 	cmp	r3, #111	; 0x6f
   1382c:	0a00004d 	beq	13968 <_nl_load_domain+0xfa8>
   13830:	e3530075 	cmp	r3, #117	; 0x75
   13834:	0a000049 	beq	13960 <_nl_load_domain+0xfa0>
   13838:	e3530078 	cmp	r3, #120	; 0x78
   1383c:	0a000045 	beq	13958 <_nl_load_domain+0xf98>
   13840:	e3530058 	cmp	r3, #88	; 0x58
   13844:	1affff66 	bne	135e4 <_nl_load_domain+0xc24>
   13848:	e1a0300c 	mov	r3, ip
   1384c:	eafffdd0 	b	12f94 <_nl_load_domain+0x5d4>
   13850:	e5d2100a 	ldrb	r1, [r2, #10]
   13854:	e3510036 	cmp	r1, #54	; 0x36
   13858:	13a03000 	movne	r3, #0
   1385c:	1afffdcc 	bne	12f94 <_nl_load_domain+0x5d4>
   13860:	e5d2200b 	ldrb	r2, [r2, #11]
   13864:	e3520000 	cmp	r2, #0
   13868:	1a000034 	bne	13940 <_nl_load_domain+0xf80>
   1386c:	e3530064 	cmp	r3, #100	; 0x64
   13870:	0a000030 	beq	13938 <_nl_load_domain+0xf78>
   13874:	e3530069 	cmp	r3, #105	; 0x69
   13878:	0a00002c 	beq	13930 <_nl_load_domain+0xf70>
   1387c:	e353006f 	cmp	r3, #111	; 0x6f
   13880:	0a000028 	beq	13928 <_nl_load_domain+0xf68>
   13884:	e3530075 	cmp	r3, #117	; 0x75
   13888:	0a000018 	beq	138f0 <_nl_load_domain+0xf30>
   1388c:	e3530078 	cmp	r3, #120	; 0x78
   13890:	0a000014 	beq	138e8 <_nl_load_domain+0xf28>
   13894:	e3530058 	cmp	r3, #88	; 0x58
   13898:	1affff51 	bne	135e4 <_nl_load_domain+0xc24>
   1389c:	e1a0300c 	mov	r3, ip
   138a0:	eafffdbb 	b	12f94 <_nl_load_domain+0x5d4>
   138a4:	e5d2200a 	ldrb	r2, [r2, #10]
   138a8:	e3520000 	cmp	r2, #0
   138ac:	1a00001b 	bne	13920 <_nl_load_domain+0xf60>
   138b0:	e3530064 	cmp	r3, #100	; 0x64
   138b4:	0a000017 	beq	13918 <_nl_load_domain+0xf58>
   138b8:	e3530069 	cmp	r3, #105	; 0x69
   138bc:	0a000013 	beq	13910 <_nl_load_domain+0xf50>
   138c0:	e353006f 	cmp	r3, #111	; 0x6f
   138c4:	0a00000f 	beq	13908 <_nl_load_domain+0xf48>
   138c8:	e3530075 	cmp	r3, #117	; 0x75
   138cc:	0a00000b 	beq	13900 <_nl_load_domain+0xf40>
   138d0:	e3530078 	cmp	r3, #120	; 0x78
   138d4:	0a000007 	beq	138f8 <_nl_load_domain+0xf38>
   138d8:	e3530058 	cmp	r3, #88	; 0x58
   138dc:	1affff40 	bne	135e4 <_nl_load_domain+0xc24>
   138e0:	e1a0300c 	mov	r3, ip
   138e4:	eafffdaa 	b	12f94 <_nl_load_domain+0x5d4>
   138e8:	e59f3104 	ldr	r3, [pc, #260]	; 139f4 <_nl_load_domain+0x1034>
   138ec:	eafffda8 	b	12f94 <_nl_load_domain+0x5d4>
   138f0:	e1a03005 	mov	r3, r5
   138f4:	eafffda6 	b	12f94 <_nl_load_domain+0x5d4>
   138f8:	e59f30f4 	ldr	r3, [pc, #244]	; 139f4 <_nl_load_domain+0x1034>
   138fc:	eafffda4 	b	12f94 <_nl_load_domain+0x5d4>
   13900:	e1a03005 	mov	r3, r5
   13904:	eafffda2 	b	12f94 <_nl_load_domain+0x5d4>
   13908:	e1a03004 	mov	r3, r4
   1390c:	eafffda0 	b	12f94 <_nl_load_domain+0x5d4>
   13910:	e1a0300e 	mov	r3, lr
   13914:	eafffd9e 	b	12f94 <_nl_load_domain+0x5d4>
   13918:	e1a03000 	mov	r3, r0
   1391c:	eafffd9c 	b	12f94 <_nl_load_domain+0x5d4>
   13920:	e3a03000 	mov	r3, #0
   13924:	eafffd9a 	b	12f94 <_nl_load_domain+0x5d4>
   13928:	e1a03004 	mov	r3, r4
   1392c:	eafffd98 	b	12f94 <_nl_load_domain+0x5d4>
   13930:	e1a0300e 	mov	r3, lr
   13934:	eafffd96 	b	12f94 <_nl_load_domain+0x5d4>
   13938:	e1a03000 	mov	r3, r0
   1393c:	eafffd94 	b	12f94 <_nl_load_domain+0x5d4>
   13940:	e3a03000 	mov	r3, #0
   13944:	eafffd92 	b	12f94 <_nl_load_domain+0x5d4>
   13948:	e59f3094 	ldr	r3, [pc, #148]	; 139e4 <_nl_load_domain+0x1024>
   1394c:	eafffd90 	b	12f94 <_nl_load_domain+0x5d4>
   13950:	e59f3094 	ldr	r3, [pc, #148]	; 139ec <_nl_load_domain+0x102c>
   13954:	eafffd8e 	b	12f94 <_nl_load_domain+0x5d4>
   13958:	e59f3094 	ldr	r3, [pc, #148]	; 139f4 <_nl_load_domain+0x1034>
   1395c:	eafffd8c 	b	12f94 <_nl_load_domain+0x5d4>
   13960:	e1a03005 	mov	r3, r5
   13964:	eafffd8a 	b	12f94 <_nl_load_domain+0x5d4>
   13968:	e1a03004 	mov	r3, r4
   1396c:	eafffd88 	b	12f94 <_nl_load_domain+0x5d4>
   13970:	e1a0300e 	mov	r3, lr
   13974:	eafffd86 	b	12f94 <_nl_load_domain+0x5d4>
   13978:	e1a03000 	mov	r3, r0
   1397c:	eafffd84 	b	12f94 <_nl_load_domain+0x5d4>
   13980:	e3a03000 	mov	r3, #0
   13984:	eafffd82 	b	12f94 <_nl_load_domain+0x5d4>
   13988:	e59f3060 	ldr	r3, [pc, #96]	; 139f0 <_nl_load_domain+0x1030>
   1398c:	eafffd80 	b	12f94 <_nl_load_domain+0x5d4>
   13990:	e59f3050 	ldr	r3, [pc, #80]	; 139e8 <_nl_load_domain+0x1028>
   13994:	eafffd7e 	b	12f94 <_nl_load_domain+0x5d4>
   13998:	e3a03000 	mov	r3, #0
   1399c:	eafffd7c 	b	12f94 <_nl_load_domain+0x5d4>
   139a0:	00098174 	.word	0x00098174
   139a4:	000845c0 	.word	0x000845c0
   139a8:	950412de 	.word	0x950412de
   139ac:	de120495 	.word	0xde120495
   139b0:	00000000 	.word	0x00000000
   139b4:	000827fc 	.word	0x000827fc
   139b8:	00000000 	.word	0x00000000
   139bc:	0008424c 	.word	0x0008424c
   139c0:	00085d60 	.word	0x00085d60
   139c4:	0008189c 	.word	0x0008189c
   139c8:	00072e08 	.word	0x00072e08
   139cc:	000716d4 	.word	0x000716d4
   139d0:	00072708 	.word	0x00072708
   139d4:	000716e4 	.word	0x000716e4
   139d8:	00020821 	.word	0x00020821
   139dc:	000716ec 	.word	0x000716ec
   139e0:	000716e0 	.word	0x000716e0
   139e4:	000716e8 	.word	0x000716e8
   139e8:	000716f0 	.word	0x000716f0
   139ec:	000716dc 	.word	0x000716dc
   139f0:	000716f4 	.word	0x000716f4
   139f4:	000716d8 	.word	0x000716d8
   139f8:	e5d21009 	ldrb	r1, [r2, #9]
   139fc:	e3510032 	cmp	r1, #50	; 0x32
   13a00:	13a03000 	movne	r3, #0
   13a04:	1afffd62 	bne	12f94 <_nl_load_domain+0x5d4>
   13a08:	e5d2200a 	ldrb	r2, [r2, #10]
   13a0c:	e3520000 	cmp	r2, #0
   13a10:	1a000059 	bne	13b7c <_nl_load_domain+0x11bc>
   13a14:	e3530064 	cmp	r3, #100	; 0x64
   13a18:	0a000055 	beq	13b74 <_nl_load_domain+0x11b4>
   13a1c:	e3530069 	cmp	r3, #105	; 0x69
   13a20:	0a000051 	beq	13b6c <_nl_load_domain+0x11ac>
   13a24:	e353006f 	cmp	r3, #111	; 0x6f
   13a28:	0a00004d 	beq	13b64 <_nl_load_domain+0x11a4>
   13a2c:	e3530075 	cmp	r3, #117	; 0x75
   13a30:	0a000049 	beq	13b5c <_nl_load_domain+0x119c>
   13a34:	e3530078 	cmp	r3, #120	; 0x78
   13a38:	0a000045 	beq	13b54 <_nl_load_domain+0x1194>
   13a3c:	e3530058 	cmp	r3, #88	; 0x58
   13a40:	1afffee7 	bne	135e4 <_nl_load_domain+0xc24>
   13a44:	e1a0300c 	mov	r3, ip
   13a48:	eafffd51 	b	12f94 <_nl_load_domain+0x5d4>
   13a4c:	e5d21009 	ldrb	r1, [r2, #9]
   13a50:	e3510036 	cmp	r1, #54	; 0x36
   13a54:	13a03000 	movne	r3, #0
   13a58:	1afffd4d 	bne	12f94 <_nl_load_domain+0x5d4>
   13a5c:	e5d2200a 	ldrb	r2, [r2, #10]
   13a60:	e3520000 	cmp	r2, #0
   13a64:	1a000034 	bne	13b3c <_nl_load_domain+0x117c>
   13a68:	e3530064 	cmp	r3, #100	; 0x64
   13a6c:	0a000030 	beq	13b34 <_nl_load_domain+0x1174>
   13a70:	e3530069 	cmp	r3, #105	; 0x69
   13a74:	0a00002c 	beq	13b2c <_nl_load_domain+0x116c>
   13a78:	e353006f 	cmp	r3, #111	; 0x6f
   13a7c:	0a000028 	beq	13b24 <_nl_load_domain+0x1164>
   13a80:	e3530075 	cmp	r3, #117	; 0x75
   13a84:	0a000018 	beq	13aec <_nl_load_domain+0x112c>
   13a88:	e3530078 	cmp	r3, #120	; 0x78
   13a8c:	0a000014 	beq	13ae4 <_nl_load_domain+0x1124>
   13a90:	e3530058 	cmp	r3, #88	; 0x58
   13a94:	1afffed2 	bne	135e4 <_nl_load_domain+0xc24>
   13a98:	e1a0300c 	mov	r3, ip
   13a9c:	eafffd3c 	b	12f94 <_nl_load_domain+0x5d4>
   13aa0:	e5d22009 	ldrb	r2, [r2, #9]
   13aa4:	e3520000 	cmp	r2, #0
   13aa8:	1a00001b 	bne	13b1c <_nl_load_domain+0x115c>
   13aac:	e3530064 	cmp	r3, #100	; 0x64
   13ab0:	0a000017 	beq	13b14 <_nl_load_domain+0x1154>
   13ab4:	e3530069 	cmp	r3, #105	; 0x69
   13ab8:	0a000013 	beq	13b0c <_nl_load_domain+0x114c>
   13abc:	e353006f 	cmp	r3, #111	; 0x6f
   13ac0:	0a00000f 	beq	13b04 <_nl_load_domain+0x1144>
   13ac4:	e3530075 	cmp	r3, #117	; 0x75
   13ac8:	0a00000b 	beq	13afc <_nl_load_domain+0x113c>
   13acc:	e3530078 	cmp	r3, #120	; 0x78
   13ad0:	0a000007 	beq	13af4 <_nl_load_domain+0x1134>
   13ad4:	e3530058 	cmp	r3, #88	; 0x58
   13ad8:	1afffec1 	bne	135e4 <_nl_load_domain+0xc24>
   13adc:	e1a0300c 	mov	r3, ip
   13ae0:	eafffd2b 	b	12f94 <_nl_load_domain+0x5d4>
   13ae4:	e51f30f8 	ldr	r3, [pc, #-248]	; 139f4 <_nl_load_domain+0x1034>
   13ae8:	eafffd29 	b	12f94 <_nl_load_domain+0x5d4>
   13aec:	e1a03005 	mov	r3, r5
   13af0:	eafffd27 	b	12f94 <_nl_load_domain+0x5d4>
   13af4:	e51f3108 	ldr	r3, [pc, #-264]	; 139f4 <_nl_load_domain+0x1034>
   13af8:	eafffd25 	b	12f94 <_nl_load_domain+0x5d4>
   13afc:	e1a03005 	mov	r3, r5
   13b00:	eafffd23 	b	12f94 <_nl_load_domain+0x5d4>
   13b04:	e1a03004 	mov	r3, r4
   13b08:	eafffd21 	b	12f94 <_nl_load_domain+0x5d4>
   13b0c:	e1a0300e 	mov	r3, lr
   13b10:	eafffd1f 	b	12f94 <_nl_load_domain+0x5d4>
   13b14:	e1a03000 	mov	r3, r0
   13b18:	eafffd1d 	b	12f94 <_nl_load_domain+0x5d4>
   13b1c:	e3a03000 	mov	r3, #0
   13b20:	eafffd1b 	b	12f94 <_nl_load_domain+0x5d4>
   13b24:	e1a03004 	mov	r3, r4
   13b28:	eafffd19 	b	12f94 <_nl_load_domain+0x5d4>
   13b2c:	e1a0300e 	mov	r3, lr
   13b30:	eafffd17 	b	12f94 <_nl_load_domain+0x5d4>
   13b34:	e1a03000 	mov	r3, r0
   13b38:	eafffd15 	b	12f94 <_nl_load_domain+0x5d4>
   13b3c:	e3a03000 	mov	r3, #0
   13b40:	eafffd13 	b	12f94 <_nl_load_domain+0x5d4>
   13b44:	e51f316c 	ldr	r3, [pc, #-364]	; 139e0 <_nl_load_domain+0x1020>
   13b48:	eafffd11 	b	12f94 <_nl_load_domain+0x5d4>
   13b4c:	e51f3170 	ldr	r3, [pc, #-368]	; 139e4 <_nl_load_domain+0x1024>
   13b50:	eafffd0f 	b	12f94 <_nl_load_domain+0x5d4>
   13b54:	e51f3168 	ldr	r3, [pc, #-360]	; 139f4 <_nl_load_domain+0x1034>
   13b58:	eafffd0d 	b	12f94 <_nl_load_domain+0x5d4>
   13b5c:	e1a03005 	mov	r3, r5
   13b60:	eafffd0b 	b	12f94 <_nl_load_domain+0x5d4>
   13b64:	e1a03004 	mov	r3, r4
   13b68:	eafffd09 	b	12f94 <_nl_load_domain+0x5d4>
   13b6c:	e1a0300e 	mov	r3, lr
   13b70:	eafffd07 	b	12f94 <_nl_load_domain+0x5d4>
   13b74:	e1a03000 	mov	r3, r0
   13b78:	eafffd05 	b	12f94 <_nl_load_domain+0x5d4>
   13b7c:	e3a03000 	mov	r3, #0
   13b80:	eafffd03 	b	12f94 <_nl_load_domain+0x5d4>
   13b84:	e51f31a0 	ldr	r3, [pc, #-416]	; 139ec <_nl_load_domain+0x102c>
   13b88:	eafffd01 	b	12f94 <_nl_load_domain+0x5d4>
   13b8c:	e51f31a4 	ldr	r3, [pc, #-420]	; 139f0 <_nl_load_domain+0x1030>
   13b90:	eafffcff 	b	12f94 <_nl_load_domain+0x5d4>
   13b94:	e51f31b4 	ldr	r3, [pc, #-436]	; 139e8 <_nl_load_domain+0x1028>
   13b98:	eafffcfd 	b	12f94 <_nl_load_domain+0x5d4>
   13b9c:	e3a03000 	mov	r3, #0
   13ba0:	eafffcfb 	b	12f94 <_nl_load_domain+0x5d4>
   13ba4:	e5d21005 	ldrb	r1, [r2, #5]
   13ba8:	e3510034 	cmp	r1, #52	; 0x34
   13bac:	13a03000 	movne	r3, #0
   13bb0:	1afffcf7 	bne	12f94 <_nl_load_domain+0x5d4>
   13bb4:	e5d22006 	ldrb	r2, [r2, #6]
   13bb8:	e3520000 	cmp	r2, #0
   13bbc:	1a000028 	bne	13c64 <_nl_load_domain+0x12a4>
   13bc0:	e3530064 	cmp	r3, #100	; 0x64
   13bc4:	0a000024 	beq	13c5c <_nl_load_domain+0x129c>
   13bc8:	e3530069 	cmp	r3, #105	; 0x69
   13bcc:	0a000118 	beq	14034 <_nl_load_domain+0x1674>
   13bd0:	e353006f 	cmp	r3, #111	; 0x6f
   13bd4:	0a000114 	beq	1402c <_nl_load_domain+0x166c>
   13bd8:	e3530075 	cmp	r3, #117	; 0x75
   13bdc:	0a00001c 	beq	13c54 <_nl_load_domain+0x1294>
   13be0:	e3530078 	cmp	r3, #120	; 0x78
   13be4:	0a000018 	beq	13c4c <_nl_load_domain+0x128c>
   13be8:	e3530058 	cmp	r3, #88	; 0x58
   13bec:	1afffe7c 	bne	135e4 <_nl_load_domain+0xc24>
   13bf0:	e51f321c 	ldr	r3, [pc, #-540]	; 139dc <_nl_load_domain+0x101c>
   13bf4:	eafffce6 	b	12f94 <_nl_load_domain+0x5d4>
   13bf8:	e5d21005 	ldrb	r1, [r2, #5]
   13bfc:	e3510032 	cmp	r1, #50	; 0x32
   13c00:	13a03000 	movne	r3, #0
   13c04:	1afffce2 	bne	12f94 <_nl_load_domain+0x5d4>
   13c08:	e5d22006 	ldrb	r2, [r2, #6]
   13c0c:	e3520000 	cmp	r2, #0
   13c10:	1a000113 	bne	14064 <_nl_load_domain+0x16a4>
   13c14:	e3530064 	cmp	r3, #100	; 0x64
   13c18:	0a00010f 	beq	1405c <_nl_load_domain+0x169c>
   13c1c:	e3530069 	cmp	r3, #105	; 0x69
   13c20:	0a00010b 	beq	14054 <_nl_load_domain+0x1694>
   13c24:	e353006f 	cmp	r3, #111	; 0x6f
   13c28:	0a000107 	beq	1404c <_nl_load_domain+0x168c>
   13c2c:	e3530075 	cmp	r3, #117	; 0x75
   13c30:	0a000103 	beq	14044 <_nl_load_domain+0x1684>
   13c34:	e3530078 	cmp	r3, #120	; 0x78
   13c38:	0a0000ff 	beq	1403c <_nl_load_domain+0x167c>
   13c3c:	e3530058 	cmp	r3, #88	; 0x58
   13c40:	1afffe67 	bne	135e4 <_nl_load_domain+0xc24>
   13c44:	e1a0300c 	mov	r3, ip
   13c48:	eafffcd1 	b	12f94 <_nl_load_domain+0x5d4>
   13c4c:	e51f3274 	ldr	r3, [pc, #-628]	; 139e0 <_nl_load_domain+0x1020>
   13c50:	eafffccf 	b	12f94 <_nl_load_domain+0x5d4>
   13c54:	e51f3278 	ldr	r3, [pc, #-632]	; 139e4 <_nl_load_domain+0x1024>
   13c58:	eafffccd 	b	12f94 <_nl_load_domain+0x5d4>
   13c5c:	e51f327c 	ldr	r3, [pc, #-636]	; 139e8 <_nl_load_domain+0x1028>
   13c60:	eafffccb 	b	12f94 <_nl_load_domain+0x5d4>
   13c64:	e3a03000 	mov	r3, #0
   13c68:	eafffcc9 	b	12f94 <_nl_load_domain+0x5d4>
   13c6c:	e5d21005 	ldrb	r1, [r2, #5]
   13c70:	e3510036 	cmp	r1, #54	; 0x36
   13c74:	13a03000 	movne	r3, #0
   13c78:	1afffcc5 	bne	12f94 <_nl_load_domain+0x5d4>
   13c7c:	e5d22006 	ldrb	r2, [r2, #6]
   13c80:	e3520000 	cmp	r2, #0
   13c84:	1a000034 	bne	13d5c <_nl_load_domain+0x139c>
   13c88:	e3530064 	cmp	r3, #100	; 0x64
   13c8c:	0a000030 	beq	13d54 <_nl_load_domain+0x1394>
   13c90:	e3530069 	cmp	r3, #105	; 0x69
   13c94:	0a00002c 	beq	13d4c <_nl_load_domain+0x138c>
   13c98:	e353006f 	cmp	r3, #111	; 0x6f
   13c9c:	0a000028 	beq	13d44 <_nl_load_domain+0x1384>
   13ca0:	e3530075 	cmp	r3, #117	; 0x75
   13ca4:	0a000018 	beq	13d0c <_nl_load_domain+0x134c>
   13ca8:	e3530078 	cmp	r3, #120	; 0x78
   13cac:	0a000014 	beq	13d04 <_nl_load_domain+0x1344>
   13cb0:	e3530058 	cmp	r3, #88	; 0x58
   13cb4:	1afffe4a 	bne	135e4 <_nl_load_domain+0xc24>
   13cb8:	e1a0300c 	mov	r3, ip
   13cbc:	eafffcb4 	b	12f94 <_nl_load_domain+0x5d4>
   13cc0:	e5d22005 	ldrb	r2, [r2, #5]
   13cc4:	e3520000 	cmp	r2, #0
   13cc8:	1a00001b 	bne	13d3c <_nl_load_domain+0x137c>
   13ccc:	e3530064 	cmp	r3, #100	; 0x64
   13cd0:	0a000017 	beq	13d34 <_nl_load_domain+0x1374>
   13cd4:	e3530069 	cmp	r3, #105	; 0x69
   13cd8:	0a000013 	beq	13d2c <_nl_load_domain+0x136c>
   13cdc:	e353006f 	cmp	r3, #111	; 0x6f
   13ce0:	0a00000f 	beq	13d24 <_nl_load_domain+0x1364>
   13ce4:	e3530075 	cmp	r3, #117	; 0x75
   13ce8:	0a00000b 	beq	13d1c <_nl_load_domain+0x135c>
   13cec:	e3530078 	cmp	r3, #120	; 0x78
   13cf0:	0a000007 	beq	13d14 <_nl_load_domain+0x1354>
   13cf4:	e3530058 	cmp	r3, #88	; 0x58
   13cf8:	1afffe39 	bne	135e4 <_nl_load_domain+0xc24>
   13cfc:	e1a0300c 	mov	r3, ip
   13d00:	eafffca3 	b	12f94 <_nl_load_domain+0x5d4>
   13d04:	e51f3318 	ldr	r3, [pc, #-792]	; 139f4 <_nl_load_domain+0x1034>
   13d08:	eafffca1 	b	12f94 <_nl_load_domain+0x5d4>
   13d0c:	e1a03005 	mov	r3, r5
   13d10:	eafffc9f 	b	12f94 <_nl_load_domain+0x5d4>
   13d14:	e51f3328 	ldr	r3, [pc, #-808]	; 139f4 <_nl_load_domain+0x1034>
   13d18:	eafffc9d 	b	12f94 <_nl_load_domain+0x5d4>
   13d1c:	e1a03005 	mov	r3, r5
   13d20:	eafffc9b 	b	12f94 <_nl_load_domain+0x5d4>
   13d24:	e1a03004 	mov	r3, r4
   13d28:	eafffc99 	b	12f94 <_nl_load_domain+0x5d4>
   13d2c:	e1a0300e 	mov	r3, lr
   13d30:	eafffc97 	b	12f94 <_nl_load_domain+0x5d4>
   13d34:	e1a03000 	mov	r3, r0
   13d38:	eafffc95 	b	12f94 <_nl_load_domain+0x5d4>
   13d3c:	e3a03000 	mov	r3, #0
   13d40:	eafffc93 	b	12f94 <_nl_load_domain+0x5d4>
   13d44:	e1a03004 	mov	r3, r4
   13d48:	eafffc91 	b	12f94 <_nl_load_domain+0x5d4>
   13d4c:	e1a0300e 	mov	r3, lr
   13d50:	eafffc8f 	b	12f94 <_nl_load_domain+0x5d4>
   13d54:	e1a03000 	mov	r3, r0
   13d58:	eafffc8d 	b	12f94 <_nl_load_domain+0x5d4>
   13d5c:	e3a03000 	mov	r3, #0
   13d60:	eafffc8b 	b	12f94 <_nl_load_domain+0x5d4>
   13d64:	e1a03005 	mov	r3, r5
   13d68:	eafffc89 	b	12f94 <_nl_load_domain+0x5d4>
   13d6c:	e1a03004 	mov	r3, r4
   13d70:	eafffc87 	b	12f94 <_nl_load_domain+0x5d4>
   13d74:	e1a0300e 	mov	r3, lr
   13d78:	eafffc85 	b	12f94 <_nl_load_domain+0x5d4>
   13d7c:	e1a03000 	mov	r3, r0
   13d80:	eafffc83 	b	12f94 <_nl_load_domain+0x5d4>
   13d84:	e5970010 	ldr	r0, [r7, #16]
   13d88:	eafffbf4 	b	12d60 <_nl_load_domain+0x3a0>
   13d8c:	e51b30a0 	ldr	r3, [fp, #-160]	; 0xffffff60
   13d90:	e2833001 	add	r3, r3, #1
   13d94:	e50b30a0 	str	r3, [fp, #-160]	; 0xffffff60
   13d98:	e51b30d4 	ldr	r3, [fp, #-212]	; 0xffffff2c
   13d9c:	e51b20bc 	ldr	r2, [fp, #-188]	; 0xffffff44
   13da0:	e2833001 	add	r3, r3, #1
   13da4:	e50b30d4 	str	r3, [fp, #-212]	; 0xffffff2c
   13da8:	e1520003 	cmp	r2, r3
   13dac:	e51b30b0 	ldr	r3, [fp, #-176]	; 0xffffff50
   13db0:	e2833004 	add	r3, r3, #4
   13db4:	e50b30b0 	str	r3, [fp, #-176]	; 0xffffff50
   13db8:	e51b30a8 	ldr	r3, [fp, #-168]	; 0xffffff58
   13dbc:	e2833004 	add	r3, r3, #4
   13dc0:	e50b30a8 	str	r3, [fp, #-168]	; 0xffffff58
   13dc4:	1afffd97 	bne	13428 <_nl_load_domain+0xa68>
   13dc8:	e51b30a4 	ldr	r3, [fp, #-164]	; 0xffffff5c
   13dcc:	e51b20a0 	ldr	r2, [fp, #-160]	; 0xffffff60
   13dd0:	e51b70c8 	ldr	r7, [fp, #-200]	; 0xffffff38
   13dd4:	e1530002 	cmp	r3, r2
   13dd8:	e51b90e0 	ldr	r9, [fp, #-224]	; 0xffffff20
   13ddc:	e51b60e4 	ldr	r6, [fp, #-228]	; 0xffffff1c
   13de0:	1afffdff 	bne	135e4 <_nl_load_domain+0xc24>
   13de4:	e51b30b8 	ldr	r3, [fp, #-184]	; 0xffffff48
   13de8:	e597002c 	ldr	r0, [r7, #44]	; 0x2c
   13dec:	e1a01003 	mov	r1, r3
   13df0:	e0830100 	add	r0, r3, r0, lsl #2
   13df4:	e1510000 	cmp	r1, r0
   13df8:	0a000014 	beq	13e50 <_nl_load_domain+0x1490>
   13dfc:	e5972034 	ldr	r2, [r7, #52]	; 0x34
   13e00:	e51b30b8 	ldr	r3, [fp, #-184]	; 0xffffff48
   13e04:	e3520000 	cmp	r2, #0
   13e08:	e5972030 	ldr	r2, [r7, #48]	; 0x30
   13e0c:	e0413003 	sub	r3, r1, r3
   13e10:	17922003 	ldrne	r2, [r2, r3]
   13e14:	07923003 	ldreq	r3, [r2, r3]
   13e18:	10223862 	eorne	r3, r2, r2, ror #16
   13e1c:	11a03423 	lsrne	r3, r3, #8
   13e20:	13c33cff 	bicne	r3, r3, #65280	; 0xff00
   13e24:	10233462 	eorne	r3, r3, r2, ror #8
   13e28:	e4813004 	str	r3, [r1], #4
   13e2c:	eafffff0 	b	13df4 <_nl_load_domain+0x1434>
   13e30:	e3500000 	cmp	r0, #0
   13e34:	059c3000 	ldreq	r3, [ip]
   13e38:	15913000 	ldrne	r3, [r1]
   13e3c:	e0883003 	add	r3, r8, r3
   13e40:	e5932008 	ldr	r2, [r3, #8]
   13e44:	e2922001 	adds	r2, r2, #1
   13e48:	13a02001 	movne	r2, #1
   13e4c:	eafffd8d 	b	13488 <_nl_load_domain+0xac8>
   13e50:	e51b30b4 	ldr	r3, [fp, #-180]	; 0xffffff4c
   13e54:	e1a02009 	mov	r2, r9
   13e58:	e50b30a0 	str	r3, [fp, #-160]	; 0xffffff60
   13e5c:	e3a03000 	mov	r3, #0
   13e60:	e50b60a8 	str	r6, [fp, #-168]	; 0xffffff58
   13e64:	e1a09008 	mov	r9, r8
   13e68:	e1a06003 	mov	r6, r3
   13e6c:	e51b30a0 	ldr	r3, [fp, #-160]	; 0xffffff60
   13e70:	e50b20ac 	str	r2, [fp, #-172]	; 0xffffff54
   13e74:	e5930004 	ldr	r0, [r3, #4]
   13e78:	eb0006fd 	bl	15a74 <__hash_string>
   13e7c:	e597502c 	ldr	r5, [r7, #44]	; 0x2c
   13e80:	e1a08000 	mov	r8, r0
   13e84:	e1a01005 	mov	r1, r5
   13e88:	eb0167ea 	bl	6de38 <__aeabi_uidivmod>
   13e8c:	e1a00008 	mov	r0, r8
   13e90:	e1a04001 	mov	r4, r1
   13e94:	e2451002 	sub	r1, r5, #2
   13e98:	eb0167e6 	bl	6de38 <__aeabi_uidivmod>
   13e9c:	e2811001 	add	r1, r1, #1
   13ea0:	e0450001 	sub	r0, r5, r1
   13ea4:	e51be0b8 	ldr	lr, [fp, #-184]	; 0xffffff48
   13ea8:	e0415005 	sub	r5, r1, r5
   13eac:	e51b20ac 	ldr	r2, [fp, #-172]	; 0xffffff54
   13eb0:	ea000002 	b	13ec0 <_nl_load_domain+0x1500>
   13eb4:	e1540000 	cmp	r4, r0
   13eb8:	20844005 	addcs	r4, r4, r5
   13ebc:	30844001 	addcc	r4, r4, r1
   13ec0:	e79e3104 	ldr	r3, [lr, r4, lsl #2]
   13ec4:	e08ec104 	add	ip, lr, r4, lsl #2
   13ec8:	e3530000 	cmp	r3, #0
   13ecc:	1afffff8 	bne	13eb4 <_nl_load_domain+0x14f4>
   13ed0:	e51b00a0 	ldr	r0, [fp, #-160]	; 0xffffff60
   13ed4:	e5971014 	ldr	r1, [r7, #20]
   13ed8:	e2800008 	add	r0, r0, #8
   13edc:	e50b00a0 	str	r0, [fp, #-160]	; 0xffffff60
   13ee0:	e2811001 	add	r1, r1, #1
   13ee4:	e51b00a4 	ldr	r0, [fp, #-164]	; 0xffffff5c
   13ee8:	e0811006 	add	r1, r1, r6
   13eec:	e2866001 	add	r6, r6, #1
   13ef0:	e1500006 	cmp	r0, r6
   13ef4:	e58c1000 	str	r1, [ip]
   13ef8:	1affffdb 	bne	13e6c <_nl_load_domain+0x14ac>
   13efc:	e1a08009 	mov	r8, r9
   13f00:	e1a09002 	mov	r9, r2
   13f04:	e51b20b4 	ldr	r2, [fp, #-180]	; 0xffffff4c
   13f08:	e51b60a8 	ldr	r6, [fp, #-168]	; 0xffffff58
   13f0c:	e5872024 	str	r2, [r7, #36]	; 0x24
   13f10:	e51b20d8 	ldr	r2, [fp, #-216]	; 0xffffff28
   13f14:	e5870020 	str	r0, [r7, #32]
   13f18:	e5872028 	str	r2, [r7, #40]	; 0x28
   13f1c:	e51b20b8 	ldr	r2, [fp, #-184]	; 0xffffff48
   13f20:	e5873034 	str	r3, [r7, #52]	; 0x34
   13f24:	e5872030 	str	r2, [r7, #48]	; 0x30
   13f28:	eafffb6c 	b	12ce0 <_nl_load_domain+0x320>
   13f2c:	e51b20cc 	ldr	r2, [fp, #-204]	; 0xffffff34
   13f30:	e50b80e8 	str	r8, [fp, #-232]	; 0xffffff18
   13f34:	e1a08005 	mov	r8, r5
   13f38:	e1a05002 	mov	r5, r2
   13f3c:	e5892004 	str	r2, [r9, #4]
   13f40:	e284400c 	add	r4, r4, #12
   13f44:	e50b30ec 	str	r3, [fp, #-236]	; 0xffffff14
   13f48:	e51b30c4 	ldr	r3, [fp, #-196]	; 0xffffff3c
   13f4c:	e3530000 	cmp	r3, #0
   13f50:	19140006 	ldmdbne	r4, {r1, r2}
   13f54:	10216861 	eorne	r6, r1, r1, ror #16
   13f58:	10227862 	eorne	r7, r2, r2, ror #16
   13f5c:	11a06426 	lsrne	r6, r6, #8
   13f60:	11a07427 	lsrne	r7, r7, #8
   13f64:	13c66cff 	bicne	r6, r6, #65280	; 0xff00
   13f68:	13c77cff 	bicne	r7, r7, #65280	; 0xff00
   13f6c:	10266461 	eorne	r6, r6, r1, ror #8
   13f70:	10277462 	eorne	r7, r7, r2, ror #8
   13f74:	091400c0 	ldmdbeq	r4, {r6, r7}
   13f78:	e3560000 	cmp	r6, #0
   13f7c:	0a000005 	beq	13f98 <_nl_load_domain+0x15d8>
   13f80:	e1a01008 	mov	r1, r8
   13f84:	e1a00005 	mov	r0, r5
   13f88:	e1a02006 	mov	r2, r6
   13f8c:	eb004a6f 	bl	26950 <memcpy>
   13f90:	e0888006 	add	r8, r8, r6
   13f94:	e0855006 	add	r5, r5, r6
   13f98:	e3770001 	cmn	r7, #1
   13f9c:	e2844008 	add	r4, r4, #8
   13fa0:	0a000019 	beq	1400c <_nl_load_domain+0x164c>
   13fa4:	e51b30ac 	ldr	r3, [fp, #-172]	; 0xffffff54
   13fa8:	e7937107 	ldr	r7, [r3, r7, lsl #2]
   13fac:	e1a00007 	mov	r0, r7
   13fb0:	eb00458e 	bl	255f0 <strlen>
   13fb4:	e1a06000 	mov	r6, r0
   13fb8:	e1a02000 	mov	r2, r0
   13fbc:	e1a01007 	mov	r1, r7
   13fc0:	e1a00005 	mov	r0, r5
   13fc4:	eb004a61 	bl	26950 <memcpy>
   13fc8:	e0855006 	add	r5, r5, r6
   13fcc:	eaffffdd 	b	13f48 <_nl_load_domain+0x1588>
   13fd0:	e3530000 	cmp	r3, #0
   13fd4:	051b20b0 	ldreq	r2, [fp, #-176]	; 0xffffff50
   13fd8:	151b20a8 	ldrne	r2, [fp, #-168]	; 0xffffff58
   13fdc:	05924000 	ldreq	r4, [r2]
   13fe0:	15924000 	ldrne	r4, [r2]
   13fe4:	051b90d0 	ldreq	r9, [fp, #-208]	; 0xffffff30
   13fe8:	e7985004 	ldr	r5, [r8, r4]
   13fec:	e0884004 	add	r4, r8, r4
   13ff0:	e5942008 	ldr	r2, [r4, #8]
   13ff4:	151b90dc 	ldrne	r9, [fp, #-220]	; 0xffffff24
   13ff8:	e3720001 	cmn	r2, #1
   13ffc:	e0885005 	add	r5, r8, r5
   14000:	1affffc9 	bne	13f2c <_nl_load_domain+0x156c>
   14004:	e5942004 	ldr	r2, [r4, #4]
   14008:	eafffd5d 	b	13584 <_nl_load_domain+0xbc4>
   1400c:	e5992004 	ldr	r2, [r9, #4]
   14010:	e1a01005 	mov	r1, r5
   14014:	e0452002 	sub	r2, r5, r2
   14018:	e50b50cc 	str	r5, [fp, #-204]	; 0xffffff34
   1401c:	e51b80e8 	ldr	r8, [fp, #-232]	; 0xffffff18
   14020:	e51b30ec 	ldr	r3, [fp, #-236]	; 0xffffff14
   14024:	e5892000 	str	r2, [r9]
   14028:	eafffd56 	b	13588 <_nl_load_domain+0xbc8>
   1402c:	e51f3648 	ldr	r3, [pc, #-1608]	; 139ec <_nl_load_domain+0x102c>
   14030:	eafffbd7 	b	12f94 <_nl_load_domain+0x5d4>
   14034:	e51f364c 	ldr	r3, [pc, #-1612]	; 139f0 <_nl_load_domain+0x1030>
   14038:	eafffbd5 	b	12f94 <_nl_load_domain+0x5d4>
   1403c:	e51f3650 	ldr	r3, [pc, #-1616]	; 139f4 <_nl_load_domain+0x1034>
   14040:	eafffbd3 	b	12f94 <_nl_load_domain+0x5d4>
   14044:	e1a03005 	mov	r3, r5
   14048:	eafffbd1 	b	12f94 <_nl_load_domain+0x5d4>
   1404c:	e1a03004 	mov	r3, r4
   14050:	eafffbcf 	b	12f94 <_nl_load_domain+0x5d4>
   14054:	e1a0300e 	mov	r3, lr
   14058:	eafffbcd 	b	12f94 <_nl_load_domain+0x5d4>
   1405c:	e1a03000 	mov	r3, r0
   14060:	eafffbcb 	b	12f94 <_nl_load_domain+0x5d4>
   14064:	e3a03000 	mov	r3, #0
   14068:	eafffbc9 	b	12f94 <_nl_load_domain+0x5d4>

0001406c <alias_compare>:
   1406c:	e5911000 	ldr	r1, [r1]
   14070:	e5900000 	ldr	r0, [r0]
   14074:	e59f2000 	ldr	r2, [pc]	; 1407c <alias_compare+0x10>
   14078:	ea004a1f 	b	268fc <__strcasecmp_l>
   1407c:	00080234 	.word	0x00080234

00014080 <read_alias_file>:
   14080:	e92d4ff0 	push	{r4, r5, r6, r7, r8, r9, sl, fp, lr}
   14084:	e1a04001 	mov	r4, r1
   14088:	e281301c 	add	r3, r1, #28
   1408c:	e28db020 	add	fp, sp, #32
   14090:	e3c33007 	bic	r3, r3, #7
   14094:	e24ddf6f 	sub	sp, sp, #444	; 0x1bc
   14098:	e04dd003 	sub	sp, sp, r3
   1409c:	e1a01000 	mov	r1, r0
   140a0:	e1a02004 	mov	r2, r4
   140a4:	e1a0000d 	mov	r0, sp
   140a8:	eb004a28 	bl	26950 <memcpy>
   140ac:	e3a0200e 	mov	r2, #14
   140b0:	e59f1434 	ldr	r1, [pc, #1076]	; 144ec <read_alias_file+0x46c>
   140b4:	e0800004 	add	r0, r0, r4
   140b8:	eb004a24 	bl	26950 <memcpy>
   140bc:	e1a0000d 	mov	r0, sp
   140c0:	e59f1428 	ldr	r1, [pc, #1064]	; 144f0 <read_alias_file+0x470>
   140c4:	eb000d5a 	bl	17634 <_IO_new_fopen>
   140c8:	e2507000 	subs	r7, r0, #0
   140cc:	0a000100 	beq	144d4 <read_alias_file+0x454>
   140d0:	e5973000 	ldr	r3, [r7]
   140d4:	e3832902 	orr	r2, r3, #32768	; 0x8000
   140d8:	e2133010 	ands	r3, r3, #16
   140dc:	e5872000 	str	r2, [r7]
   140e0:	1a0000fe 	bne	144e0 <read_alias_file+0x460>
   140e4:	e3a06e19 	mov	r6, #400	; 0x190
   140e8:	e3a0900a 	mov	r9, #10
   140ec:	e59fa400 	ldr	sl, [pc, #1024]	; 144f4 <read_alias_file+0x474>
   140f0:	e50b31c4 	str	r3, [fp, #-452]	; 0xfffffe3c
   140f4:	e1a02007 	mov	r2, r7
   140f8:	e1a01006 	mov	r1, r6
   140fc:	e24b0f6d 	sub	r0, fp, #436	; 0x1b4
   14100:	eb001548 	bl	19628 <__fgets_unlocked>
   14104:	e3500000 	cmp	r0, #0
   14108:	0a000080 	beq	14310 <read_alias_file+0x290>
   1410c:	e1a01009 	mov	r1, r9
   14110:	e24b0f6d 	sub	r0, fp, #436	; 0x1b4
   14114:	eb0044d2 	bl	25464 <strchr>
   14118:	e1a08000 	mov	r8, r0
   1411c:	ebfff35b 	bl	10e90 <__aeabi_read_tp>
   14120:	e59f33d0 	ldr	r3, [pc, #976]	; 144f8 <read_alias_file+0x478>
   14124:	e55b21b4 	ldrb	r2, [fp, #-436]	; 0xfffffe4c
   14128:	e79f3003 	ldr	r3, [pc, r3]
   1412c:	e1a01082 	lsl	r1, r2, #1
   14130:	e7903003 	ldr	r3, [r0, r3]
   14134:	e24b4f6d 	sub	r4, fp, #436	; 0x1b4
   14138:	e19310b1 	ldrh	r1, [r3, r1]
   1413c:	e3110a02 	tst	r1, #8192	; 0x2000
   14140:	0a000004 	beq	14158 <read_alias_file+0xd8>
   14144:	e5f42001 	ldrb	r2, [r4, #1]!
   14148:	e1a01082 	lsl	r1, r2, #1
   1414c:	e19310b1 	ldrh	r1, [r3, r1]
   14150:	e3110a02 	tst	r1, #8192	; 0x2000
   14154:	1afffffa 	bne	14144 <read_alias_file+0xc4>
   14158:	e3520000 	cmp	r2, #0
   1415c:	13520023 	cmpne	r2, #35	; 0x23
   14160:	0a000065 	beq	142fc <read_alias_file+0x27c>
   14164:	e5d42001 	ldrb	r2, [r4, #1]
   14168:	e2845001 	add	r5, r4, #1
   1416c:	e3520000 	cmp	r2, #0
   14170:	0a00000b 	beq	141a4 <read_alias_file+0x124>
   14174:	e1a02082 	lsl	r2, r2, #1
   14178:	e19320b2 	ldrh	r2, [r3, r2]
   1417c:	e3120a02 	tst	r2, #8192	; 0x2000
   14180:	0a000003 	beq	14194 <read_alias_file+0x114>
   14184:	ea000075 	b	14360 <read_alias_file+0x2e0>
   14188:	e19320b1 	ldrh	r2, [r3, r1]
   1418c:	e3120a02 	tst	r2, #8192	; 0x2000
   14190:	1a000072 	bne	14360 <read_alias_file+0x2e0>
   14194:	e5f52001 	ldrb	r2, [r5, #1]!
   14198:	e3520000 	cmp	r2, #0
   1419c:	e1a01082 	lsl	r1, r2, #1
   141a0:	1afffff8 	bne	14188 <read_alias_file+0x108>
   141a4:	e1d320b0 	ldrh	r2, [r3]
   141a8:	e3120a02 	tst	r2, #8192	; 0x2000
   141ac:	0a000052 	beq	142fc <read_alias_file+0x27c>
   141b0:	e5f52001 	ldrb	r2, [r5, #1]!
   141b4:	e1a01082 	lsl	r1, r2, #1
   141b8:	e19310b1 	ldrh	r1, [r3, r1]
   141bc:	e3110a02 	tst	r1, #8192	; 0x2000
   141c0:	1afffffa 	bne	141b0 <read_alias_file+0x130>
   141c4:	e3520000 	cmp	r2, #0
   141c8:	0a00004b 	beq	142fc <read_alias_file+0x27c>
   141cc:	e5d52001 	ldrb	r2, [r5, #1]
   141d0:	e2851001 	add	r1, r5, #1
   141d4:	e3520000 	cmp	r2, #0
   141d8:	0a00000d 	beq	14214 <read_alias_file+0x194>
   141dc:	e1a00082 	lsl	r0, r2, #1
   141e0:	ea000003 	b	141f4 <read_alias_file+0x174>
   141e4:	e5f12001 	ldrb	r2, [r1, #1]!
   141e8:	e3520000 	cmp	r2, #0
   141ec:	e1a00082 	lsl	r0, r2, #1
   141f0:	0a000007 	beq	14214 <read_alias_file+0x194>
   141f4:	e19300b0 	ldrh	r0, [r3, r0]
   141f8:	e3100a02 	tst	r0, #8192	; 0x2000
   141fc:	0afffff8 	beq	141e4 <read_alias_file+0x164>
   14200:	e352000a 	cmp	r2, #10
   14204:	1a00008e 	bne	14444 <read_alias_file+0x3c4>
   14208:	e3a03000 	mov	r3, #0
   1420c:	e5c12001 	strb	r2, [r1, #1]
   14210:	e5c13000 	strb	r3, [r1]
   14214:	e59a3000 	ldr	r3, [sl]
   14218:	e59a2004 	ldr	r2, [sl, #4]
   1421c:	e50b31bc 	str	r3, [fp, #-444]	; 0xfffffe44
   14220:	e1530002 	cmp	r3, r2
   14224:	2a000089 	bcs	14450 <read_alias_file+0x3d0>
   14228:	e1a00004 	mov	r0, r4
   1422c:	eb0044ef 	bl	255f0 <strlen>
   14230:	e2803001 	add	r3, r0, #1
   14234:	e1a00005 	mov	r0, r5
   14238:	e50b31b8 	str	r3, [fp, #-440]	; 0xfffffe48
   1423c:	eb0044eb 	bl	255f0 <strlen>
   14240:	e59a2008 	ldr	r2, [sl, #8]
   14244:	e51b31b8 	ldr	r3, [fp, #-440]	; 0xfffffe48
   14248:	e50b21cc 	str	r2, [fp, #-460]	; 0xfffffe34
   1424c:	e0833002 	add	r3, r3, r2
   14250:	e1a02003 	mov	r2, r3
   14254:	e2801001 	add	r1, r0, #1
   14258:	e50b31d0 	str	r3, [fp, #-464]	; 0xfffffe30
   1425c:	e59a300c 	ldr	r3, [sl, #12]
   14260:	e0812002 	add	r2, r1, r2
   14264:	e1520003 	cmp	r2, r3
   14268:	e50b11c8 	str	r1, [fp, #-456]	; 0xfffffe38
   1426c:	e50b21d4 	str	r2, [fp, #-468]	; 0xfffffe2c
   14270:	8a000043 	bhi	14384 <read_alias_file+0x304>
   14274:	e59f2280 	ldr	r2, [pc, #640]	; 144fc <read_alias_file+0x47c>
   14278:	e59f327c 	ldr	r3, [pc, #636]	; 144fc <read_alias_file+0x47c>
   1427c:	e5922000 	ldr	r2, [r2]
   14280:	e5933004 	ldr	r3, [r3, #4]
   14284:	e50b21d8 	str	r2, [fp, #-472]	; 0xfffffe28
   14288:	e51b21bc 	ldr	r2, [fp, #-444]	; 0xfffffe44
   1428c:	e1a02182 	lsl	r2, r2, #3
   14290:	e50b21c0 	str	r2, [fp, #-448]	; 0xfffffe40
   14294:	e51b01cc 	ldr	r0, [fp, #-460]	; 0xfffffe34
   14298:	e51b21b8 	ldr	r2, [fp, #-440]	; 0xfffffe48
   1429c:	e1a01004 	mov	r1, r4
   142a0:	e0830000 	add	r0, r3, r0
   142a4:	e50b31b8 	str	r3, [fp, #-440]	; 0xfffffe48
   142a8:	eb0049a8 	bl	26950 <memcpy>
   142ac:	e51b41d8 	ldr	r4, [fp, #-472]	; 0xfffffe28
   142b0:	e51b11c0 	ldr	r1, [fp, #-448]	; 0xfffffe40
   142b4:	e51b31b8 	ldr	r3, [fp, #-440]	; 0xfffffe48
   142b8:	e7840001 	str	r0, [r4, r1]
   142bc:	e51b01d0 	ldr	r0, [fp, #-464]	; 0xfffffe30
   142c0:	e51b21c8 	ldr	r2, [fp, #-456]	; 0xfffffe38
   142c4:	e1a01005 	mov	r1, r5
   142c8:	e0830000 	add	r0, r3, r0
   142cc:	eb00499f 	bl	26950 <memcpy>
   142d0:	e51b31bc 	ldr	r3, [fp, #-444]	; 0xfffffe44
   142d4:	e51b11c0 	ldr	r1, [fp, #-448]	; 0xfffffe40
   142d8:	e2833001 	add	r3, r3, #1
   142dc:	e58a3000 	str	r3, [sl]
   142e0:	e51b31d4 	ldr	r3, [fp, #-468]	; 0xfffffe2c
   142e4:	e0842001 	add	r2, r4, r1
   142e8:	e58a3008 	str	r3, [sl, #8]
   142ec:	e51b31c4 	ldr	r3, [fp, #-452]	; 0xfffffe3c
   142f0:	e5820004 	str	r0, [r2, #4]
   142f4:	e2833001 	add	r3, r3, #1
   142f8:	e50b31c4 	str	r3, [fp, #-452]	; 0xfffffe3c
   142fc:	e3580000 	cmp	r8, #0
   14300:	0a00000f 	beq	14344 <read_alias_file+0x2c4>
   14304:	e5973000 	ldr	r3, [r7]
   14308:	e3130010 	tst	r3, #16
   1430c:	0affff78 	beq	140f4 <read_alias_file+0x74>
   14310:	e1a00007 	mov	r0, r7
   14314:	eb000b36 	bl	16ff4 <_IO_new_fclose>
   14318:	e51b31c4 	ldr	r3, [fp, #-452]	; 0xfffffe3c
   1431c:	e3530000 	cmp	r3, #0
   14320:	1a000061 	bne	144ac <read_alias_file+0x42c>
   14324:	e51b01c4 	ldr	r0, [fp, #-452]	; 0xfffffe3c
   14328:	e24bd020 	sub	sp, fp, #32
   1432c:	e8bd8ff0 	pop	{r4, r5, r6, r7, r8, r9, sl, fp, pc}
   14330:	e1a01009 	mov	r1, r9
   14334:	e24b0f6d 	sub	r0, fp, #436	; 0x1b4
   14338:	eb004449 	bl	25464 <strchr>
   1433c:	e3500000 	cmp	r0, #0
   14340:	1affffef 	bne	14304 <read_alias_file+0x284>
   14344:	e1a02007 	mov	r2, r7
   14348:	e1a01006 	mov	r1, r6
   1434c:	e24b0f6d 	sub	r0, fp, #436	; 0x1b4
   14350:	eb0014b4 	bl	19628 <__fgets_unlocked>
   14354:	e3500000 	cmp	r0, #0
   14358:	1afffff4 	bne	14330 <read_alias_file+0x2b0>
   1435c:	eaffffe8 	b	14304 <read_alias_file+0x284>
   14360:	e3a00000 	mov	r0, #0
   14364:	e5d52001 	ldrb	r2, [r5, #1]
   14368:	e5c50000 	strb	r0, [r5]
   1436c:	e1a01082 	lsl	r1, r2, #1
   14370:	e19310b1 	ldrh	r1, [r3, r1]
   14374:	e2855001 	add	r5, r5, #1
   14378:	e3110a02 	tst	r1, #8192	; 0x2000
   1437c:	1affff8b 	bne	141b0 <read_alias_file+0x130>
   14380:	eaffff8f 	b	141c4 <read_alias_file+0x144>
   14384:	e51b11c8 	ldr	r1, [fp, #-456]	; 0xfffffe38
   14388:	e51b21b8 	ldr	r2, [fp, #-440]	; 0xfffffe48
   1438c:	e0822001 	add	r2, r2, r1
   14390:	e3520b01 	cmp	r2, #1024	; 0x400
   14394:	20833002 	addcs	r3, r3, r2
   14398:	32833b01 	addcc	r3, r3, #1024	; 0x400
   1439c:	e1a01003 	mov	r1, r3
   143a0:	e50b31dc 	str	r3, [fp, #-476]	; 0xfffffe24
   143a4:	e59f3150 	ldr	r3, [pc, #336]	; 144fc <read_alias_file+0x47c>
   143a8:	e5933004 	ldr	r3, [r3, #4]
   143ac:	e1a00003 	mov	r0, r3
   143b0:	e50b31c0 	str	r3, [fp, #-448]	; 0xfffffe40
   143b4:	eb003c4a 	bl	234e4 <__libc_realloc>
   143b8:	e250e000 	subs	lr, r0, #0
   143bc:	0affffd3 	beq	14310 <read_alias_file+0x290>
   143c0:	e51b31c0 	ldr	r3, [fp, #-448]	; 0xfffffe40
   143c4:	e153000e 	cmp	r3, lr
   143c8:	0a000030 	beq	14490 <read_alias_file+0x410>
   143cc:	e51b11bc 	ldr	r1, [fp, #-444]	; 0xfffffe44
   143d0:	e3510000 	cmp	r1, #0
   143d4:	0a00002d 	beq	14490 <read_alias_file+0x410>
   143d8:	e59f211c 	ldr	r2, [pc, #284]	; 144fc <read_alias_file+0x47c>
   143dc:	e04e3003 	sub	r3, lr, r3
   143e0:	e5922000 	ldr	r2, [r2]
   143e4:	e1a00002 	mov	r0, r2
   143e8:	e50b21d8 	str	r2, [fp, #-472]	; 0xfffffe28
   143ec:	e1a02181 	lsl	r2, r1, #3
   143f0:	e1a0c002 	mov	ip, r2
   143f4:	e50b21c0 	str	r2, [fp, #-448]	; 0xfffffe40
   143f8:	e1a02000 	mov	r2, r0
   143fc:	e2801004 	add	r1, r0, #4
   14400:	e080c00c 	add	ip, r0, ip
   14404:	e5110004 	ldr	r0, [r1, #-4]
   14408:	e2822008 	add	r2, r2, #8
   1440c:	e0800003 	add	r0, r0, r3
   14410:	e5010004 	str	r0, [r1, #-4]
   14414:	e5120004 	ldr	r0, [r2, #-4]
   14418:	e2811008 	add	r1, r1, #8
   1441c:	e0800003 	add	r0, r0, r3
   14420:	e5020004 	str	r0, [r2, #-4]
   14424:	e152000c 	cmp	r2, ip
   14428:	1afffff5 	bne	14404 <read_alias_file+0x384>
   1442c:	e59f20c8 	ldr	r2, [pc, #200]	; 144fc <read_alias_file+0x47c>
   14430:	e1a0300e 	mov	r3, lr
   14434:	e582e004 	str	lr, [r2, #4]
   14438:	e51b21dc 	ldr	r2, [fp, #-476]	; 0xfffffe24
   1443c:	e58a200c 	str	r2, [sl, #12]
   14440:	eaffff93 	b	14294 <read_alias_file+0x214>
   14444:	e3a03000 	mov	r3, #0
   14448:	e5c13000 	strb	r3, [r1]
   1444c:	eaffff70 	b	14214 <read_alias_file+0x194>
   14450:	e3520000 	cmp	r2, #0
   14454:	03a03064 	moveq	r3, #100	; 0x64
   14458:	11a03082 	lslne	r3, r2, #1
   1445c:	e50b31b8 	str	r3, [fp, #-440]	; 0xfffffe48
   14460:	e59f3094 	ldr	r3, [pc, #148]	; 144fc <read_alias_file+0x47c>
   14464:	11a01202 	lslne	r1, r2, #4
   14468:	03a01e32 	moveq	r1, #800	; 0x320
   1446c:	e5930000 	ldr	r0, [r3]
   14470:	eb003c1b 	bl	234e4 <__libc_realloc>
   14474:	e3500000 	cmp	r0, #0
   14478:	0affffa4 	beq	14310 <read_alias_file+0x290>
   1447c:	e59f3078 	ldr	r3, [pc, #120]	; 144fc <read_alias_file+0x47c>
   14480:	e5830000 	str	r0, [r3]
   14484:	e51b31b8 	ldr	r3, [fp, #-440]	; 0xfffffe48
   14488:	e58a3004 	str	r3, [sl, #4]
   1448c:	eaffff65 	b	14228 <read_alias_file+0x1a8>
   14490:	e59f3064 	ldr	r3, [pc, #100]	; 144fc <read_alias_file+0x47c>
   14494:	e5933000 	ldr	r3, [r3]
   14498:	e50b31d8 	str	r3, [fp, #-472]	; 0xfffffe28
   1449c:	e51b31bc 	ldr	r3, [fp, #-444]	; 0xfffffe44
   144a0:	e1a03183 	lsl	r3, r3, #3
   144a4:	e50b31c0 	str	r3, [fp, #-448]	; 0xfffffe40
   144a8:	eaffffdf 	b	1442c <read_alias_file+0x3ac>
   144ac:	e59f2040 	ldr	r2, [pc, #64]	; 144f4 <read_alias_file+0x474>
   144b0:	e59f3044 	ldr	r3, [pc, #68]	; 144fc <read_alias_file+0x47c>
   144b4:	e5921000 	ldr	r1, [r2]
   144b8:	e5930000 	ldr	r0, [r3]
   144bc:	e3a02008 	mov	r2, #8
   144c0:	e59f3038 	ldr	r3, [pc, #56]	; 14500 <read_alias_file+0x480>
   144c4:	eb000782 	bl	162d4 <qsort>
   144c8:	e51b01c4 	ldr	r0, [fp, #-452]	; 0xfffffe3c
   144cc:	e24bd020 	sub	sp, fp, #32
   144d0:	e8bd8ff0 	pop	{r4, r5, r6, r7, r8, r9, sl, fp, pc}
   144d4:	e1a00007 	mov	r0, r7
   144d8:	e24bd020 	sub	sp, fp, #32
   144dc:	e8bd8ff0 	pop	{r4, r5, r6, r7, r8, r9, sl, fp, pc}
   144e0:	eb000ac3 	bl	16ff4 <_IO_new_fclose>
   144e4:	e3a00000 	mov	r0, #0
   144e8:	eaffff8e 	b	14328 <read_alias_file+0x2a8>
   144ec:	000716fc 	.word	0x000716fc
   144f0:	000716f8 	.word	0x000716f8
   144f4:	00098180 	.word	0x00098180
   144f8:	00082f20 	.word	0x00082f20
   144fc:	00098fdc 	.word	0x00098fdc
   14500:	0001406c 	.word	0x0001406c

00014504 <_nl_expand_alias>:
   14504:	e92d4ff8 	push	{r3, r4, r5, r6, r7, r8, r9, sl, fp, lr}
   14508:	e3a01001 	mov	r1, #1
   1450c:	e1a09000 	mov	r9, r0
   14510:	e59f21a8 	ldr	r2, [pc, #424]	; 146c0 <_nl_expand_alias+0x1bc>
   14514:	e3a04000 	mov	r4, #0
   14518:	e5923000 	ldr	r3, [r2]
   1451c:	e1530004 	cmp	r3, r4
   14520:	1a000005 	bne	1453c <_nl_expand_alias+0x38>
   14524:	e1a00004 	mov	r0, r4
   14528:	e3e03a0f 	mvn	r3, #61440	; 0xf000
   1452c:	e1a0e00f 	mov	lr, pc
   14530:	e243f03f 	sub	pc, r3, #63	; 0x3f
   14534:	3afffff7 	bcc	14518 <_nl_expand_alias+0x14>
   14538:	e1a03004 	mov	r3, r4
   1453c:	e1530004 	cmp	r3, r4
   14540:	0a000001 	beq	1454c <_nl_expand_alias+0x48>
   14544:	e1a00002 	mov	r0, r2
   14548:	eb00556f 	bl	29b0c <__lll_lock_wait_private>
   1454c:	e3a05001 	mov	r5, #1
   14550:	e59fa16c 	ldr	sl, [pc, #364]	; 146c4 <_nl_expand_alias+0x1c0>
   14554:	e59f816c 	ldr	r8, [pc, #364]	; 146c8 <_nl_expand_alias+0x1c4>
   14558:	e59a3014 	ldr	r3, [sl, #20]
   1455c:	e3530000 	cmp	r3, #0
   14560:	059f3164 	ldreq	r3, [pc, #356]	; 146cc <_nl_expand_alias+0x1c8>
   14564:	058a3014 	streq	r3, [sl, #20]
   14568:	e59a7000 	ldr	r7, [sl]
   1456c:	e3570000 	cmp	r7, #0
   14570:	0a000013 	beq	145c4 <_nl_expand_alias+0xc0>
   14574:	e59f3154 	ldr	r3, [pc, #340]	; 146d0 <_nl_expand_alias+0x1cc>
   14578:	e3a06000 	mov	r6, #0
   1457c:	e593b000 	ldr	fp, [r3]
   14580:	ea000003 	b	14594 <_nl_expand_alias+0x90>
   14584:	0a00004b 	beq	146b8 <_nl_expand_alias+0x1b4>
   14588:	e2846001 	add	r6, r4, #1
   1458c:	e1560007 	cmp	r6, r7
   14590:	2a00000b 	bcs	145c4 <_nl_expand_alias+0xc0>
   14594:	e0864007 	add	r4, r6, r7
   14598:	e1a040a4 	lsr	r4, r4, #1
   1459c:	e1a02008 	mov	r2, r8
   145a0:	e79b1184 	ldr	r1, [fp, r4, lsl #3]
   145a4:	e1a00009 	mov	r0, r9
   145a8:	eb0048d3 	bl	268fc <__strcasecmp_l>
   145ac:	e3500000 	cmp	r0, #0
   145b0:	e08b2184 	add	r2, fp, r4, lsl #3
   145b4:	aafffff2 	bge	14584 <_nl_expand_alias+0x80>
   145b8:	e1a07004 	mov	r7, r4
   145bc:	e1560007 	cmp	r6, r7
   145c0:	3afffff3 	bcc	14594 <_nl_expand_alias+0x90>
   145c4:	e59a2014 	ldr	r2, [sl, #20]
   145c8:	e5d23000 	ldrb	r3, [r2]
   145cc:	e3530000 	cmp	r3, #0
   145d0:	0a000016 	beq	14630 <_nl_expand_alias+0x12c>
   145d4:	e3a01000 	mov	r1, #0
   145d8:	e353003a 	cmp	r3, #58	; 0x3a
   145dc:	e1a00002 	mov	r0, r2
   145e0:	1a000003 	bne	145f4 <_nl_expand_alias+0xf0>
   145e4:	e5f03001 	ldrb	r3, [r0, #1]!
   145e8:	e353003a 	cmp	r3, #58	; 0x3a
   145ec:	0afffffc 	beq	145e4 <_nl_expand_alias+0xe0>
   145f0:	e1a01005 	mov	r1, r5
   145f4:	e3530000 	cmp	r3, #0
   145f8:	e1a02000 	mov	r2, r0
   145fc:	0a000006 	beq	1461c <_nl_expand_alias+0x118>
   14600:	e5f23001 	ldrb	r3, [r2, #1]!
   14604:	e3530000 	cmp	r3, #0
   14608:	1353003a 	cmpne	r3, #58	; 0x3a
   1460c:	1afffffb 	bne	14600 <_nl_expand_alias+0xfc>
   14610:	e1520000 	cmp	r2, r0
   14614:	8a000021 	bhi	146a0 <_nl_expand_alias+0x19c>
   14618:	e1a01005 	mov	r1, r5
   1461c:	e5d23000 	ldrb	r3, [r2]
   14620:	e3530000 	cmp	r3, #0
   14624:	1affffeb 	bne	145d8 <_nl_expand_alias+0xd4>
   14628:	e3510000 	cmp	r1, #0
   1462c:	158a2014 	strne	r2, [sl, #20]
   14630:	e3a08000 	mov	r8, #0
   14634:	e3a07000 	mov	r7, #0
   14638:	e59f6080 	ldr	r6, [pc, #128]	; 146c0 <_nl_expand_alias+0x1bc>
   1463c:	e59a5010 	ldr	r5, [sl, #16]
   14640:	e1a01007 	mov	r1, r7
   14644:	e1a04005 	mov	r4, r5
   14648:	e1a02006 	mov	r2, r6
   1464c:	e5923000 	ldr	r3, [r2]
   14650:	e1530004 	cmp	r3, r4
   14654:	1a000005 	bne	14670 <_nl_expand_alias+0x16c>
   14658:	e1a00004 	mov	r0, r4
   1465c:	e3e03a0f 	mvn	r3, #61440	; 0xf000
   14660:	e1a0e00f 	mov	lr, pc
   14664:	e243f03f 	sub	pc, r3, #63	; 0x3f
   14668:	3afffff7 	bcc	1464c <_nl_expand_alias+0x148>
   1466c:	e1a03004 	mov	r3, r4
   14670:	e1550003 	cmp	r5, r3
   14674:	1afffff0 	bne	1463c <_nl_expand_alias+0x138>
   14678:	e3550001 	cmp	r5, #1
   1467c:	da000005 	ble	14698 <_nl_expand_alias+0x194>
   14680:	e1a00006 	mov	r0, r6
   14684:	e3a01081 	mov	r1, #129	; 0x81
   14688:	e3a02001 	mov	r2, #1
   1468c:	e3a03000 	mov	r3, #0
   14690:	e3a070f0 	mov	r7, #240	; 0xf0
   14694:	ef000000 	svc	0x00000000
   14698:	e1a00008 	mov	r0, r8
   1469c:	e8bd8ff8 	pop	{r3, r4, r5, r6, r7, r8, r9, sl, fp, pc}
   146a0:	e0421000 	sub	r1, r2, r0
   146a4:	e58a2014 	str	r2, [sl, #20]
   146a8:	ebfffe74 	bl	14080 <read_alias_file>
   146ac:	e3500000 	cmp	r0, #0
   146b0:	0affffc3 	beq	145c4 <_nl_expand_alias+0xc0>
   146b4:	eaffffab 	b	14568 <_nl_expand_alias+0x64>
   146b8:	e5928004 	ldr	r8, [r2, #4]
   146bc:	eaffffdc 	b	14634 <_nl_expand_alias+0x130>
   146c0:	00098190 	.word	0x00098190
   146c4:	00098180 	.word	0x00098180
   146c8:	00080234 	.word	0x00080234
   146cc:	000716b4 	.word	0x000716b4
   146d0:	00098fdc 	.word	0x00098fdc

000146d4 <_nl_make_l10nflist>:
   146d4:	e92d4ff0 	push	{r4, r5, r6, r7, r8, r9, sl, fp, lr}
   146d8:	e24dd03c 	sub	sp, sp, #60	; 0x3c
   146dc:	e59db060 	ldr	fp, [sp, #96]	; 0x60
   146e0:	e1a05003 	mov	r5, r3
   146e4:	e1a09000 	mov	r9, r0
   146e8:	e1a0000b 	mov	r0, fp
   146ec:	e1a06002 	mov	r6, r2
   146f0:	e58d3030 	str	r3, [sp, #48]	; 0x30
   146f4:	e58d2020 	str	r2, [sp, #32]
   146f8:	e58d1024 	str	r1, [sp, #36]	; 0x24
   146fc:	eb0043bb 	bl	255f0 <strlen>
   14700:	e2157004 	ands	r7, r5, #4
   14704:	e1a04000 	mov	r4, r0
   14708:	e2866002 	add	r6, r6, #2
   1470c:	01a05007 	moveq	r5, r7
   14710:	0a000002 	beq	14720 <_nl_make_l10nflist+0x4c>
   14714:	e59d0064 	ldr	r0, [sp, #100]	; 0x64
   14718:	eb0043b4 	bl	255f0 <strlen>
   1471c:	e2805001 	add	r5, r0, #1
   14720:	e59d3030 	ldr	r3, [sp, #48]	; 0x30
   14724:	e0844006 	add	r4, r4, r6
   14728:	e2133002 	ands	r3, r3, #2
   1472c:	e58d3028 	str	r3, [sp, #40]	; 0x28
   14730:	0a000117 	beq	14b94 <_nl_make_l10nflist+0x4c0>
   14734:	e59d0068 	ldr	r0, [sp, #104]	; 0x68
   14738:	eb0043ac 	bl	255f0 <strlen>
   1473c:	e2808001 	add	r8, r0, #1
   14740:	e59d3030 	ldr	r3, [sp, #48]	; 0x30
   14744:	e0855004 	add	r5, r5, r4
   14748:	e2133001 	ands	r3, r3, #1
   1474c:	e58d302c 	str	r3, [sp, #44]	; 0x2c
   14750:	0a00010d 	beq	14b8c <_nl_make_l10nflist+0x4b8>
   14754:	e59d006c 	ldr	r0, [sp, #108]	; 0x6c
   14758:	eb0043a4 	bl	255f0 <strlen>
   1475c:	e2806001 	add	r6, r0, #1
   14760:	e59d3030 	ldr	r3, [sp, #48]	; 0x30
   14764:	e0885005 	add	r5, r8, r5
   14768:	e2133008 	ands	r3, r3, #8
   1476c:	e58d3034 	str	r3, [sp, #52]	; 0x34
   14770:	0a000103 	beq	14b84 <_nl_make_l10nflist+0x4b0>
   14774:	e59d0070 	ldr	r0, [sp, #112]	; 0x70
   14778:	eb00439c 	bl	255f0 <strlen>
   1477c:	e2804001 	add	r4, r0, #1
   14780:	e59d0074 	ldr	r0, [sp, #116]	; 0x74
   14784:	eb004399 	bl	255f0 <strlen>
   14788:	e1a08000 	mov	r8, r0
   1478c:	e0865005 	add	r5, r6, r5
   14790:	e0850004 	add	r0, r5, r4
   14794:	e0800008 	add	r0, r0, r8
   14798:	eb003946 	bl	22cb8 <__libc_malloc>
   1479c:	e2506000 	subs	r6, r0, #0
   147a0:	0a000127 	beq	14c44 <_nl_make_l10nflist+0x570>
   147a4:	e59d4020 	ldr	r4, [sp, #32]
   147a8:	e59d1024 	ldr	r1, [sp, #36]	; 0x24
   147ac:	e1a02004 	mov	r2, r4
   147b0:	eb004866 	bl	26950 <memcpy>
   147b4:	e3540000 	cmp	r4, #0
   147b8:	0a00000a 	beq	147e8 <_nl_make_l10nflist+0x114>
   147bc:	e1a0a004 	mov	sl, r4
   147c0:	e1a05006 	mov	r5, r6
   147c4:	e3a0403a 	mov	r4, #58	; 0x3a
   147c8:	e1a00005 	mov	r0, r5
   147cc:	eb004387 	bl	255f0 <strlen>
   147d0:	e04aa000 	sub	sl, sl, r0
   147d4:	e25aa001 	subs	sl, sl, #1
   147d8:	e0855000 	add	r5, r5, r0
   147dc:	15c54000 	strbne	r4, [r5]
   147e0:	12855001 	addne	r5, r5, #1
   147e4:	1afffff7 	bne	147c8 <_nl_make_l10nflist+0xf4>
   147e8:	e3a0302f 	mov	r3, #47	; 0x2f
   147ec:	e59d2020 	ldr	r2, [sp, #32]
   147f0:	e1a0100b 	mov	r1, fp
   147f4:	e0860002 	add	r0, r6, r2
   147f8:	e5403001 	strb	r3, [r0, #-1]
   147fc:	eb004832 	bl	268cc <__stpcpy>
   14800:	e3570000 	cmp	r7, #0
   14804:	1a0000f9 	bne	14bf0 <_nl_make_l10nflist+0x51c>
   14808:	e59d3028 	ldr	r3, [sp, #40]	; 0x28
   1480c:	e3530000 	cmp	r3, #0
   14810:	1a0000f0 	bne	14bd8 <_nl_make_l10nflist+0x504>
   14814:	e59d302c 	ldr	r3, [sp, #44]	; 0x2c
   14818:	e3530000 	cmp	r3, #0
   1481c:	1a0000e7 	bne	14bc0 <_nl_make_l10nflist+0x4ec>
   14820:	e59d3034 	ldr	r3, [sp, #52]	; 0x34
   14824:	e3530000 	cmp	r3, #0
   14828:	1a0000de 	bne	14ba8 <_nl_make_l10nflist+0x4d4>
   1482c:	e3a0302f 	mov	r3, #47	; 0x2f
   14830:	e2882001 	add	r2, r8, #1
   14834:	e4c03001 	strb	r3, [r0], #1
   14838:	e59d1074 	ldr	r1, [sp, #116]	; 0x74
   1483c:	eb004843 	bl	26950 <memcpy>
   14840:	e5997000 	ldr	r7, [r9]
   14844:	e3570000 	cmp	r7, #0
   14848:	0a0000ff 	beq	14c4c <_nl_make_l10nflist+0x578>
   1484c:	e1a04007 	mov	r4, r7
   14850:	e3a05000 	mov	r5, #0
   14854:	e5940000 	ldr	r0, [r4]
   14858:	e3500000 	cmp	r0, #0
   1485c:	0a000005 	beq	14878 <_nl_make_l10nflist+0x1a4>
   14860:	e1a01006 	mov	r1, r6
   14864:	eb004341 	bl	25570 <strcmp>
   14868:	e3500000 	cmp	r0, #0
   1486c:	0a0000e6 	beq	14c0c <_nl_make_l10nflist+0x538>
   14870:	ba000003 	blt	14884 <_nl_make_l10nflist+0x1b0>
   14874:	e1a05004 	mov	r5, r4
   14878:	e594400c 	ldr	r4, [r4, #12]
   1487c:	e3540000 	cmp	r4, #0
   14880:	1afffff3 	bne	14854 <_nl_make_l10nflist+0x180>
   14884:	e59d3078 	ldr	r3, [sp, #120]	; 0x78
   14888:	e3530000 	cmp	r3, #0
   1488c:	0a0000dd 	beq	14c08 <_nl_make_l10nflist+0x534>
   14890:	e59d3020 	ldr	r3, [sp, #32]
   14894:	e3530000 	cmp	r3, #0
   14898:	0a0000e0 	beq	14c20 <_nl_make_l10nflist+0x54c>
   1489c:	e3a0a000 	mov	sl, #0
   148a0:	e59d4020 	ldr	r4, [sp, #32]
   148a4:	e59d8024 	ldr	r8, [sp, #36]	; 0x24
   148a8:	e1a00008 	mov	r0, r8
   148ac:	eb00434f 	bl	255f0 <strlen>
   148b0:	e0444000 	sub	r4, r4, r0
   148b4:	e2544001 	subs	r4, r4, #1
   148b8:	e2800001 	add	r0, r0, #1
   148bc:	e28aa001 	add	sl, sl, #1
   148c0:	e0888000 	add	r8, r8, r0
   148c4:	1afffff7 	bne	148a8 <_nl_make_l10nflist+0x1d4>
   148c8:	e59d2030 	ldr	r2, [sp, #48]	; 0x30
   148cc:	e59f3390 	ldr	r3, [pc, #912]	; 14c64 <_nl_make_l10nflist+0x590>
   148d0:	e3c21c55 	bic	r1, r2, #21760	; 0x5500
   148d4:	e0033002 	and	r3, r3, r2
   148d8:	e3c11055 	bic	r1, r1, #85	; 0x55
   148dc:	e08310c1 	add	r1, r3, r1, asr #1
   148e0:	e59f3380 	ldr	r3, [pc, #896]	; 14c68 <_nl_make_l10nflist+0x594>
   148e4:	e3c12c33 	bic	r2, r1, #13056	; 0x3300
   148e8:	e0033001 	and	r3, r3, r1
   148ec:	e3c22033 	bic	r2, r2, #51	; 0x33
   148f0:	e0832142 	add	r2, r3, r2, asr #2
   148f4:	e59f3370 	ldr	r3, [pc, #880]	; 14c6c <_nl_make_l10nflist+0x598>
   148f8:	e0822242 	add	r2, r2, r2, asr #4
   148fc:	e0033002 	and	r3, r3, r2
   14900:	e0833423 	add	r3, r3, r3, lsr #8
   14904:	e20330ff 	and	r3, r3, #255	; 0xff
   14908:	e1a0008a 	lsl	r0, sl, #1
   1490c:	e1a00310 	lsl	r0, r0, r3
   14910:	e2800005 	add	r0, r0, #5
   14914:	e1a00100 	lsl	r0, r0, #2
   14918:	eb0038e6 	bl	22cb8 <__libc_malloc>
   1491c:	e2503000 	subs	r3, r0, #0
   14920:	e58d3028 	str	r3, [sp, #40]	; 0x28
   14924:	0a0000ca 	beq	14c54 <_nl_make_l10nflist+0x580>
   14928:	e59d3028 	ldr	r3, [sp, #40]	; 0x28
   1492c:	e59d8024 	ldr	r8, [sp, #36]	; 0x24
   14930:	e5836000 	str	r6, [r3]
   14934:	e59d6020 	ldr	r6, [sp, #32]
   14938:	e1a00008 	mov	r0, r8
   1493c:	eb00432b 	bl	255f0 <strlen>
   14940:	e0466000 	sub	r6, r6, r0
   14944:	e2566001 	subs	r6, r6, #1
   14948:	e2800001 	add	r0, r0, #1
   1494c:	e2844001 	add	r4, r4, #1
   14950:	e0888000 	add	r8, r8, r0
   14954:	1afffff7 	bne	14938 <_nl_make_l10nflist+0x264>
   14958:	e3540001 	cmp	r4, #1
   1495c:	059d3030 	ldreq	r3, [sp, #48]	; 0x30
   14960:	13a03001 	movne	r3, #1
   14964:	02033003 	andeq	r3, r3, #3
   14968:	02433003 	subeq	r3, r3, #3
   1496c:	016f3f13 	clzeq	r3, r3
   14970:	01a032a3 	lsreq	r3, r3, #5
   14974:	e3a02000 	mov	r2, #0
   14978:	e59d1028 	ldr	r1, [sp, #40]	; 0x28
   1497c:	e1550002 	cmp	r5, r2
   14980:	e5813004 	str	r3, [r1, #4]
   14984:	01a03001 	moveq	r3, r1
   14988:	e5812008 	str	r2, [r1, #8]
   1498c:	1595300c 	ldrne	r3, [r5, #12]
   14990:	159d2028 	ldrne	r2, [sp, #40]	; 0x28
   14994:	0583700c 	streq	r7, [r3, #12]
   14998:	1582300c 	strne	r3, [r2, #12]
   1499c:	05893000 	streq	r3, [r9]
   149a0:	e59d3020 	ldr	r3, [sp, #32]
   149a4:	1585200c 	strne	r2, [r5, #12]
   149a8:	e3530000 	cmp	r3, #0
   149ac:	0a00000c 	beq	149e4 <_nl_make_l10nflist+0x310>
   149b0:	e1a04003 	mov	r4, r3
   149b4:	e3a06000 	mov	r6, #0
   149b8:	e59d5024 	ldr	r5, [sp, #36]	; 0x24
   149bc:	e1a00005 	mov	r0, r5
   149c0:	eb00430a 	bl	255f0 <strlen>
   149c4:	e0444000 	sub	r4, r4, r0
   149c8:	e2544001 	subs	r4, r4, #1
   149cc:	e2800001 	add	r0, r0, #1
   149d0:	e2866001 	add	r6, r6, #1
   149d4:	e0855000 	add	r5, r5, r0
   149d8:	1afffff7 	bne	149bc <_nl_make_l10nflist+0x2e8>
   149dc:	e3560001 	cmp	r6, #1
   149e0:	0a00006d 	beq	14b9c <_nl_make_l10nflist+0x4c8>
   149e4:	e59d7030 	ldr	r7, [sp, #48]	; 0x30
   149e8:	e3570000 	cmp	r7, #0
   149ec:	e3a05000 	mov	r5, #0
   149f0:	ba000037 	blt	14ad4 <_nl_make_l10nflist+0x400>
   149f4:	e59d3030 	ldr	r3, [sp, #48]	; 0x30
   149f8:	e59d2020 	ldr	r2, [sp, #32]
   149fc:	e1e03003 	mvn	r3, r3
   14a00:	e58d302c 	str	r3, [sp, #44]	; 0x2c
   14a04:	e59d3024 	ldr	r3, [sp, #36]	; 0x24
   14a08:	e3a0a001 	mov	sl, #1
   14a0c:	e0838002 	add	r8, r3, r2
   14a10:	ea000001 	b	14a1c <_nl_make_l10nflist+0x348>
   14a14:	e2577001 	subs	r7, r7, #1
   14a18:	3a00002d 	bcc	14ad4 <_nl_make_l10nflist+0x400>
   14a1c:	e59d302c 	ldr	r3, [sp, #44]	; 0x2c
   14a20:	e1170003 	tst	r7, r3
   14a24:	1afffffa 	bne	14a14 <_nl_make_l10nflist+0x340>
   14a28:	e3a04000 	mov	r4, #0
   14a2c:	e59d3028 	ldr	r3, [sp, #40]	; 0x28
   14a30:	e2856004 	add	r6, r5, #4
   14a34:	e3540000 	cmp	r4, #0
   14a38:	e0836106 	add	r6, r3, r6, lsl #2
   14a3c:	0a00001f 	beq	14ac0 <_nl_make_l10nflist+0x3ec>
   14a40:	e1540008 	cmp	r4, r8
   14a44:	2afffff2 	bcs	14a14 <_nl_make_l10nflist+0x340>
   14a48:	e1a00004 	mov	r0, r4
   14a4c:	e3a01000 	mov	r1, #0
   14a50:	eb004865 	bl	26bec <__rawmemchr>
   14a54:	e2804001 	add	r4, r0, #1
   14a58:	e3540000 	cmp	r4, #0
   14a5c:	11540008 	cmpne	r4, r8
   14a60:	2affffeb 	bcs	14a14 <_nl_make_l10nflist+0x340>
   14a64:	e1a00004 	mov	r0, r4
   14a68:	eb0042e0 	bl	255f0 <strlen>
   14a6c:	e59d3074 	ldr	r3, [sp, #116]	; 0x74
   14a70:	e2802001 	add	r2, r0, #1
   14a74:	e58d3014 	str	r3, [sp, #20]
   14a78:	e59d3070 	ldr	r3, [sp, #112]	; 0x70
   14a7c:	e58da018 	str	sl, [sp, #24]
   14a80:	e58d3010 	str	r3, [sp, #16]
   14a84:	e59d306c 	ldr	r3, [sp, #108]	; 0x6c
   14a88:	e58db000 	str	fp, [sp]
   14a8c:	e58d300c 	str	r3, [sp, #12]
   14a90:	e59d3068 	ldr	r3, [sp, #104]	; 0x68
   14a94:	e1a01004 	mov	r1, r4
   14a98:	e58d3008 	str	r3, [sp, #8]
   14a9c:	e59d3064 	ldr	r3, [sp, #100]	; 0x64
   14aa0:	e1a00009 	mov	r0, r9
   14aa4:	e58d3004 	str	r3, [sp, #4]
   14aa8:	e1a03007 	mov	r3, r7
   14aac:	ebffff08 	bl	146d4 <_nl_make_l10nflist>
   14ab0:	e3540000 	cmp	r4, #0
   14ab4:	e2855001 	add	r5, r5, #1
   14ab8:	e4860004 	str	r0, [r6], #4
   14abc:	1affffdf 	bne	14a40 <_nl_make_l10nflist+0x36c>
   14ac0:	e59d3020 	ldr	r3, [sp, #32]
   14ac4:	e3530000 	cmp	r3, #0
   14ac8:	0affffd1 	beq	14a14 <_nl_make_l10nflist+0x340>
   14acc:	e59d4024 	ldr	r4, [sp, #36]	; 0x24
   14ad0:	eaffffe3 	b	14a64 <_nl_make_l10nflist+0x390>
   14ad4:	e59d3030 	ldr	r3, [sp, #48]	; 0x30
   14ad8:	e3530000 	cmp	r3, #0
   14adc:	ba000021 	blt	14b68 <_nl_make_l10nflist+0x494>
   14ae0:	e1e04003 	mvn	r4, r3
   14ae4:	e3a08001 	mov	r8, #1
   14ae8:	e3a0701b 	mov	r7, #27
   14aec:	e59f617c 	ldr	r6, [pc, #380]	; 14c70 <_nl_make_l10nflist+0x59c>
   14af0:	e1a0a003 	mov	sl, r3
   14af4:	ea000001 	b	14b00 <_nl_make_l10nflist+0x42c>
   14af8:	e25aa001 	subs	sl, sl, #1
   14afc:	3a000019 	bcc	14b68 <_nl_make_l10nflist+0x494>
   14b00:	e11a0004 	tst	sl, r4
   14b04:	1afffffb 	bne	14af8 <_nl_make_l10nflist+0x424>
   14b08:	e59d3074 	ldr	r3, [sp, #116]	; 0x74
   14b0c:	e1a02007 	mov	r2, r7
   14b10:	e58d3014 	str	r3, [sp, #20]
   14b14:	e59d3070 	ldr	r3, [sp, #112]	; 0x70
   14b18:	e58d8018 	str	r8, [sp, #24]
   14b1c:	e58d3010 	str	r3, [sp, #16]
   14b20:	e59d306c 	ldr	r3, [sp, #108]	; 0x6c
   14b24:	e58db000 	str	fp, [sp]
   14b28:	e58d300c 	str	r3, [sp, #12]
   14b2c:	e59d3068 	ldr	r3, [sp, #104]	; 0x68
   14b30:	e1a01006 	mov	r1, r6
   14b34:	e58d3008 	str	r3, [sp, #8]
   14b38:	e59d3064 	ldr	r3, [sp, #100]	; 0x64
   14b3c:	e1a00009 	mov	r0, r9
   14b40:	e58d3004 	str	r3, [sp, #4]
   14b44:	e1a0300a 	mov	r3, sl
   14b48:	ebfffee1 	bl	146d4 <_nl_make_l10nflist>
   14b4c:	e2852001 	add	r2, r5, #1
   14b50:	e2853004 	add	r3, r5, #4
   14b54:	e1a05002 	mov	r5, r2
   14b58:	e59d2028 	ldr	r2, [sp, #40]	; 0x28
   14b5c:	e25aa001 	subs	sl, sl, #1
   14b60:	e7820103 	str	r0, [r2, r3, lsl #2]
   14b64:	2affffe5 	bcs	14b00 <_nl_make_l10nflist+0x42c>
   14b68:	e59d2028 	ldr	r2, [sp, #40]	; 0x28
   14b6c:	e3a03000 	mov	r3, #0
   14b70:	e1a00002 	mov	r0, r2
   14b74:	e2855004 	add	r5, r5, #4
   14b78:	e7823105 	str	r3, [r2, r5, lsl #2]
   14b7c:	e28dd03c 	add	sp, sp, #60	; 0x3c
   14b80:	e8bd8ff0 	pop	{r4, r5, r6, r7, r8, r9, sl, fp, pc}
   14b84:	e59d4034 	ldr	r4, [sp, #52]	; 0x34
   14b88:	eafffefc 	b	14780 <_nl_make_l10nflist+0xac>
   14b8c:	e59d602c 	ldr	r6, [sp, #44]	; 0x2c
   14b90:	eafffef2 	b	14760 <_nl_make_l10nflist+0x8c>
   14b94:	e59d8028 	ldr	r8, [sp, #40]	; 0x28
   14b98:	eafffee8 	b	14740 <_nl_make_l10nflist+0x6c>
   14b9c:	e59d3030 	ldr	r3, [sp, #48]	; 0x30
   14ba0:	e2437001 	sub	r7, r3, #1
   14ba4:	eaffff8f 	b	149e8 <_nl_make_l10nflist+0x314>
   14ba8:	e3a03040 	mov	r3, #64	; 0x40
   14bac:	e59d1070 	ldr	r1, [sp, #112]	; 0x70
   14bb0:	e5c03000 	strb	r3, [r0]
   14bb4:	e2800001 	add	r0, r0, #1
   14bb8:	eb004743 	bl	268cc <__stpcpy>
   14bbc:	eaffff1a 	b	1482c <_nl_make_l10nflist+0x158>
   14bc0:	e3a0302e 	mov	r3, #46	; 0x2e
   14bc4:	e59d106c 	ldr	r1, [sp, #108]	; 0x6c
   14bc8:	e5c03000 	strb	r3, [r0]
   14bcc:	e2800001 	add	r0, r0, #1
   14bd0:	eb00473d 	bl	268cc <__stpcpy>
   14bd4:	eaffff11 	b	14820 <_nl_make_l10nflist+0x14c>
   14bd8:	e3a0302e 	mov	r3, #46	; 0x2e
   14bdc:	e59d1068 	ldr	r1, [sp, #104]	; 0x68
   14be0:	e5c03000 	strb	r3, [r0]
   14be4:	e2800001 	add	r0, r0, #1
   14be8:	eb004737 	bl	268cc <__stpcpy>
   14bec:	eaffff08 	b	14814 <_nl_make_l10nflist+0x140>
   14bf0:	e3a0305f 	mov	r3, #95	; 0x5f
   14bf4:	e59d1064 	ldr	r1, [sp, #100]	; 0x64
   14bf8:	e5c03000 	strb	r3, [r0]
   14bfc:	e2800001 	add	r0, r0, #1
   14c00:	eb004731 	bl	268cc <__stpcpy>
   14c04:	eafffeff 	b	14808 <_nl_make_l10nflist+0x134>
   14c08:	e59d4078 	ldr	r4, [sp, #120]	; 0x78
   14c0c:	e1a00006 	mov	r0, r6
   14c10:	eb003a09 	bl	2343c <__cfree>
   14c14:	e1a00004 	mov	r0, r4
   14c18:	e28dd03c 	add	sp, sp, #60	; 0x3c
   14c1c:	e8bd8ff0 	pop	{r4, r5, r6, r7, r8, r9, sl, fp, pc}
   14c20:	e3a00014 	mov	r0, #20
   14c24:	eb003823 	bl	22cb8 <__libc_malloc>
   14c28:	e2503000 	subs	r3, r0, #0
   14c2c:	e58d3028 	str	r3, [sp, #40]	; 0x28
   14c30:	0a000007 	beq	14c54 <_nl_make_l10nflist+0x580>
   14c34:	e59d3028 	ldr	r3, [sp, #40]	; 0x28
   14c38:	e5836000 	str	r6, [r3]
   14c3c:	e3a03001 	mov	r3, #1
   14c40:	eaffff4b 	b	14974 <_nl_make_l10nflist+0x2a0>
   14c44:	e1a00006 	mov	r0, r6
   14c48:	eaffffcb 	b	14b7c <_nl_make_l10nflist+0x4a8>
   14c4c:	e1a05007 	mov	r5, r7
   14c50:	eaffff0b 	b	14884 <_nl_make_l10nflist+0x1b0>
   14c54:	e1a00006 	mov	r0, r6
   14c58:	eb0039f7 	bl	2343c <__cfree>
   14c5c:	e3a00000 	mov	r0, #0
   14c60:	eaffffc5 	b	14b7c <_nl_make_l10nflist+0x4a8>
   14c64:	00005555 	.word	0x00005555
   14c68:	00003333 	.word	0x00003333
   14c6c:	00000f0f 	.word	0x00000f0f
   14c70:	0007170c 	.word	0x0007170c

00014c74 <_nl_normalize_codeset>:
   14c74:	e92d41f0 	push	{r4, r5, r6, r7, r8, lr}
   14c78:	e2517000 	subs	r7, r1, #0
   14c7c:	e1a04000 	mov	r4, r0
   14c80:	0a00003c 	beq	14d78 <_nl_normalize_codeset+0x104>
   14c84:	e1a02000 	mov	r2, r0
   14c88:	e3a01001 	mov	r1, #1
   14c8c:	e3a00000 	mov	r0, #0
   14c90:	e59f60f4 	ldr	r6, [pc, #244]	; 14d8c <_nl_normalize_codeset+0x118>
   14c94:	e0845007 	add	r5, r4, r7
   14c98:	e596e034 	ldr	lr, [r6, #52]	; 0x34
   14c9c:	e4d23001 	ldrb	r3, [r2], #1
   14ca0:	e1a0c083 	lsl	ip, r3, #1
   14ca4:	e19ec0bc 	ldrh	ip, [lr, ip]
   14ca8:	e2433030 	sub	r3, r3, #48	; 0x30
   14cac:	e31c0008 	tst	ip, #8
   14cb0:	0a000002 	beq	14cc0 <_nl_normalize_codeset+0x4c>
   14cb4:	e3530009 	cmp	r3, #9
   14cb8:	83a01000 	movhi	r1, #0
   14cbc:	e2800001 	add	r0, r0, #1
   14cc0:	e1520005 	cmp	r2, r5
   14cc4:	1afffff4 	bne	14c9c <_nl_normalize_codeset+0x28>
   14cc8:	e3510000 	cmp	r1, #0
   14ccc:	1a00001c 	bne	14d44 <_nl_normalize_codeset+0xd0>
   14cd0:	e2800001 	add	r0, r0, #1
   14cd4:	eb0037f7 	bl	22cb8 <__libc_malloc>
   14cd8:	e3500000 	cmp	r0, #0
   14cdc:	11a0c000 	movne	ip, r0
   14ce0:	0a000016 	beq	14d40 <_nl_normalize_codeset+0xcc>
   14ce4:	e1a02004 	mov	r2, r4
   14ce8:	e5964034 	ldr	r4, [r6, #52]	; 0x34
   14cec:	e5966038 	ldr	r6, [r6, #56]	; 0x38
   14cf0:	ea000004 	b	14d08 <_nl_normalize_codeset+0x94>
   14cf4:	e7963103 	ldr	r3, [r6, r3, lsl #2]
   14cf8:	e1550002 	cmp	r5, r2
   14cfc:	e5cc3000 	strb	r3, [ip]
   14d00:	e28cc001 	add	ip, ip, #1
   14d04:	0a00000a 	beq	14d34 <_nl_normalize_codeset+0xc0>
   14d08:	e4d23001 	ldrb	r3, [r2], #1
   14d0c:	e1a01083 	lsl	r1, r3, #1
   14d10:	e19410b1 	ldrh	r1, [r4, r1]
   14d14:	e243e030 	sub	lr, r3, #48	; 0x30
   14d18:	e3110b01 	tst	r1, #1024	; 0x400
   14d1c:	1afffff4 	bne	14cf4 <_nl_normalize_codeset+0x80>
   14d20:	e35e0009 	cmp	lr, #9
   14d24:	95cc3000 	strbls	r3, [ip]
   14d28:	928cc001 	addls	ip, ip, #1
   14d2c:	e1550002 	cmp	r5, r2
   14d30:	1afffff4 	bne	14d08 <_nl_normalize_codeset+0x94>
   14d34:	e3a03000 	mov	r3, #0
   14d38:	e5cc3000 	strb	r3, [ip]
   14d3c:	e8bd81f0 	pop	{r4, r5, r6, r7, r8, pc}
   14d40:	e8bd81f0 	pop	{r4, r5, r6, r7, r8, pc}
   14d44:	e2800004 	add	r0, r0, #4
   14d48:	eb0037da 	bl	22cb8 <__libc_malloc>
   14d4c:	e3500000 	cmp	r0, #0
   14d50:	0a000007 	beq	14d74 <_nl_normalize_codeset+0x100>
   14d54:	e1a0c000 	mov	ip, r0
   14d58:	e59f3030 	ldr	r3, [pc, #48]	; 14d90 <_nl_normalize_codeset+0x11c>
   14d5c:	e3570000 	cmp	r7, #0
   14d60:	e48c3003 	str	r3, [ip], #3
   14d64:	0afffff2 	beq	14d34 <_nl_normalize_codeset+0xc0>
   14d68:	e0845007 	add	r5, r4, r7
   14d6c:	e59f6018 	ldr	r6, [pc, #24]	; 14d8c <_nl_normalize_codeset+0x118>
   14d70:	eaffffdb 	b	14ce4 <_nl_normalize_codeset+0x70>
   14d74:	e8bd81f0 	pop	{r4, r5, r6, r7, r8, pc}
   14d78:	e3a00004 	mov	r0, #4
   14d7c:	eb0037cd 	bl	22cb8 <__libc_malloc>
   14d80:	e3500000 	cmp	r0, #0
   14d84:	1afffff2 	bne	14d54 <_nl_normalize_codeset+0xe0>
   14d88:	e8bd81f0 	pop	{r4, r5, r6, r7, r8, pc}
   14d8c:	00080234 	.word	0x00080234
   14d90:	006f7369 	.word	0x006f7369

00014d94 <_nl_explode_name>:
   14d94:	e92d4ff8 	push	{r3, r4, r5, r6, r7, r8, r9, sl, fp, lr}
   14d98:	e1a07003 	mov	r7, r3
   14d9c:	e3a03000 	mov	r3, #0
   14da0:	e1a09002 	mov	r9, r2
   14da4:	e5823000 	str	r3, [r2]
   14da8:	e59d6028 	ldr	r6, [sp, #40]	; 0x28
   14dac:	e59d202c 	ldr	r2, [sp, #44]	; 0x2c
   14db0:	e5873000 	str	r3, [r7]
   14db4:	e5863000 	str	r3, [r6]
   14db8:	e5823000 	str	r3, [r2]
   14dbc:	e5810000 	str	r0, [r1]
   14dc0:	e5d03000 	ldrb	r3, [r0]
   14dc4:	e20320bf 	and	r2, r3, #191	; 0xbf
   14dc8:	e353005f 	cmp	r3, #95	; 0x5f
   14dcc:	13520000 	cmpne	r2, #0
   14dd0:	0a000062 	beq	14f60 <_nl_explode_name+0x1cc>
   14dd4:	e353002e 	cmp	r3, #46	; 0x2e
   14dd8:	0a000060 	beq	14f60 <_nl_explode_name+0x1cc>
   14ddc:	e1a04000 	mov	r4, r0
   14de0:	ea000004 	b	14df8 <_nl_explode_name+0x64>
   14de4:	e3510040 	cmp	r1, #64	; 0x40
   14de8:	1351002e 	cmpne	r1, #46	; 0x2e
   14dec:	13a0c001 	movne	ip, #1
   14df0:	03a0c000 	moveq	ip, #0
   14df4:	0a00003a 	beq	14ee4 <_nl_explode_name+0x150>
   14df8:	e5f41001 	ldrb	r1, [r4, #1]!
   14dfc:	e3510000 	cmp	r1, #0
   14e00:	1351005f 	cmpne	r1, #95	; 0x5f
   14e04:	13a0c001 	movne	ip, #1
   14e08:	03a0c000 	moveq	ip, #0
   14e0c:	1afffff4 	bne	14de4 <_nl_explode_name+0x50>
   14e10:	e1500004 	cmp	r0, r4
   14e14:	0a000051 	beq	14f60 <_nl_explode_name+0x1cc>
   14e18:	e351005f 	cmp	r1, #95	; 0x5f
   14e1c:	1a000032 	bne	14eec <_nl_explode_name+0x158>
   14e20:	e1a03004 	mov	r3, r4
   14e24:	e4c3c001 	strb	ip, [r3], #1
   14e28:	e5873000 	str	r3, [r7]
   14e2c:	e5d41001 	ldrb	r1, [r4, #1]
   14e30:	e20120bf 	and	r2, r1, #191	; 0xbf
   14e34:	e351002e 	cmp	r1, #46	; 0x2e
   14e38:	13520000 	cmpne	r2, #0
   14e3c:	0a000004 	beq	14e54 <_nl_explode_name+0xc0>
   14e40:	e5f31001 	ldrb	r1, [r3, #1]!
   14e44:	e20120bf 	and	r2, r1, #191	; 0xbf
   14e48:	e351002e 	cmp	r1, #46	; 0x2e
   14e4c:	13520000 	cmpne	r2, #0
   14e50:	1afffffa 	bne	14e40 <_nl_explode_name+0xac>
   14e54:	e351002e 	cmp	r1, #46	; 0x2e
   14e58:	e1a04003 	mov	r4, r3
   14e5c:	e3a05004 	mov	r5, #4
   14e60:	1a000024 	bne	14ef8 <_nl_explode_name+0x164>
   14e64:	e1a00004 	mov	r0, r4
   14e68:	e3a03000 	mov	r3, #0
   14e6c:	e4c03001 	strb	r3, [r0], #1
   14e70:	e5860000 	str	r0, [r6]
   14e74:	e5d41001 	ldrb	r1, [r4, #1]
   14e78:	e31100bf 	tst	r1, #191	; 0xbf
   14e7c:	0a000042 	beq	14f8c <_nl_explode_name+0x1f8>
   14e80:	e1a0b000 	mov	fp, r0
   14e84:	ea000000 	b	14e8c <_nl_explode_name+0xf8>
   14e88:	e1a0b004 	mov	fp, r4
   14e8c:	e5db3001 	ldrb	r3, [fp, #1]
   14e90:	e28b4001 	add	r4, fp, #1
   14e94:	e31300bf 	tst	r3, #191	; 0xbf
   14e98:	1afffffa 	bne	14e88 <_nl_explode_name+0xf4>
   14e9c:	e1500004 	cmp	r0, r4
   14ea0:	e385a002 	orr	sl, r5, #2
   14ea4:	0a00003b 	beq	14f98 <_nl_explode_name+0x204>
   14ea8:	e0441000 	sub	r1, r4, r0
   14eac:	ebffff70 	bl	14c74 <_nl_normalize_codeset>
   14eb0:	e59d302c 	ldr	r3, [sp, #44]	; 0x2c
   14eb4:	e3500000 	cmp	r0, #0
   14eb8:	e1a08000 	mov	r8, r0
   14ebc:	e5830000 	str	r0, [r3]
   14ec0:	0a000036 	beq	14fa0 <_nl_explode_name+0x20c>
   14ec4:	e1a01000 	mov	r1, r0
   14ec8:	e5960000 	ldr	r0, [r6]
   14ecc:	eb0041a7 	bl	25570 <strcmp>
   14ed0:	e3500000 	cmp	r0, #0
   14ed4:	0a000027 	beq	14f78 <_nl_explode_name+0x1e4>
   14ed8:	e3855003 	orr	r5, r5, #3
   14edc:	e5db1001 	ldrb	r1, [fp, #1]
   14ee0:	ea000004 	b	14ef8 <_nl_explode_name+0x164>
   14ee4:	e1500004 	cmp	r0, r4
   14ee8:	0a00001c 	beq	14f60 <_nl_explode_name+0x1cc>
   14eec:	e351002e 	cmp	r1, #46	; 0x2e
   14ef0:	e1a0500c 	mov	r5, ip
   14ef4:	0affffda 	beq	14e64 <_nl_explode_name+0xd0>
   14ef8:	e3510040 	cmp	r1, #64	; 0x40
   14efc:	0a00000f 	beq	14f40 <_nl_explode_name+0x1ac>
   14f00:	e5973000 	ldr	r3, [r7]
   14f04:	e3530000 	cmp	r3, #0
   14f08:	0a000002 	beq	14f18 <_nl_explode_name+0x184>
   14f0c:	e5d33000 	ldrb	r3, [r3]
   14f10:	e3530000 	cmp	r3, #0
   14f14:	03c55004 	biceq	r5, r5, #4
   14f18:	e5963000 	ldr	r3, [r6]
   14f1c:	e3530000 	cmp	r3, #0
   14f20:	0a000004 	beq	14f38 <_nl_explode_name+0x1a4>
   14f24:	e5d33000 	ldrb	r3, [r3]
   14f28:	e3530000 	cmp	r3, #0
   14f2c:	1a000001 	bne	14f38 <_nl_explode_name+0x1a4>
   14f30:	e3c50002 	bic	r0, r5, #2
   14f34:	e8bd8ff8 	pop	{r3, r4, r5, r6, r7, r8, r9, sl, fp, pc}
   14f38:	e1a00005 	mov	r0, r5
   14f3c:	e8bd8ff8 	pop	{r3, r4, r5, r6, r7, r8, r9, sl, fp, pc}
   14f40:	e1a03004 	mov	r3, r4
   14f44:	e3a02000 	mov	r2, #0
   14f48:	e4c32001 	strb	r2, [r3], #1
   14f4c:	e5893000 	str	r3, [r9]
   14f50:	e5d43001 	ldrb	r3, [r4, #1]
   14f54:	e1530002 	cmp	r3, r2
   14f58:	13855008 	orrne	r5, r5, #8
   14f5c:	eaffffe7 	b	14f00 <_nl_explode_name+0x16c>
   14f60:	e3a01000 	mov	r1, #0
   14f64:	eb004720 	bl	26bec <__rawmemchr>
   14f68:	e3a05000 	mov	r5, #0
   14f6c:	e1a04000 	mov	r4, r0
   14f70:	e5d01000 	ldrb	r1, [r0]
   14f74:	eaffffdf 	b	14ef8 <_nl_explode_name+0x164>
   14f78:	e1a00008 	mov	r0, r8
   14f7c:	eb00392e 	bl	2343c <__cfree>
   14f80:	e1a0500a 	mov	r5, sl
   14f84:	e5db1001 	ldrb	r1, [fp, #1]
   14f88:	eaffffda 	b	14ef8 <_nl_explode_name+0x164>
   14f8c:	e3855002 	orr	r5, r5, #2
   14f90:	e1a04000 	mov	r4, r0
   14f94:	eaffffd7 	b	14ef8 <_nl_explode_name+0x164>
   14f98:	e1a0500a 	mov	r5, sl
   14f9c:	eaffffd5 	b	14ef8 <_nl_explode_name+0x164>
   14fa0:	e3e00000 	mvn	r0, #0
   14fa4:	e8bd8ff8 	pop	{r3, r4, r5, r6, r7, r8, r9, sl, fp, pc}

00014fa8 <__gettext_free_exp>:
   14fa8:	e3500000 	cmp	r0, #0
   14fac:	012fff1e 	bxeq	lr
   14fb0:	e5903000 	ldr	r3, [r0]
   14fb4:	e92d4010 	push	{r4, lr}
   14fb8:	e3530002 	cmp	r3, #2
   14fbc:	e1a04000 	mov	r4, r0
   14fc0:	0a000008 	beq	14fe8 <__gettext_free_exp+0x40>
   14fc4:	e3530003 	cmp	r3, #3
   14fc8:	0a000004 	beq	14fe0 <__gettext_free_exp+0x38>
   14fcc:	e3530001 	cmp	r3, #1
   14fd0:	0a000006 	beq	14ff0 <__gettext_free_exp+0x48>
   14fd4:	e1a00004 	mov	r0, r4
   14fd8:	e8bd4010 	pop	{r4, lr}
   14fdc:	ea003916 	b	2343c <__cfree>
   14fe0:	e5900010 	ldr	r0, [r0, #16]
   14fe4:	ebffffef 	bl	14fa8 <__gettext_free_exp>
   14fe8:	e594000c 	ldr	r0, [r4, #12]
   14fec:	ebffffed 	bl	14fa8 <__gettext_free_exp>
   14ff0:	e5940008 	ldr	r0, [r4, #8]
   14ff4:	ebffffeb 	bl	14fa8 <__gettext_free_exp>
   14ff8:	e1a00004 	mov	r0, r4
   14ffc:	e8bd4010 	pop	{r4, lr}
   15000:	ea00390d 	b	2343c <__cfree>

00015004 <new_exp>:
   15004:	e92d47f0 	push	{r4, r5, r6, r7, r8, r9, sl, lr}
   15008:	e2504001 	subs	r4, r0, #1
   1500c:	e1a05000 	mov	r5, r0
   15010:	e1a09001 	mov	r9, r1
   15014:	4a000028 	bmi	150bc <new_exp+0xb8>
   15018:	e7926104 	ldr	r6, [r2, r4, lsl #2]
   1501c:	e1a07104 	lsl	r7, r4, #2
   15020:	e3560000 	cmp	r6, #0
   15024:	1082a007 	addne	sl, r2, r7
   15028:	e1a08002 	mov	r8, r2
   1502c:	11a0000a 	movne	r0, sl
   15030:	11a03004 	movne	r3, r4
   15034:	1a000003 	bne	15048 <new_exp+0x44>
   15038:	ea000014 	b	15090 <new_exp+0x8c>
   1503c:	e530c004 	ldr	ip, [r0, #-4]!
   15040:	e35c0000 	cmp	ip, #0
   15044:	0a000011 	beq	15090 <new_exp+0x8c>
   15048:	e2533001 	subs	r3, r3, #1
   1504c:	2afffffa 	bcs	1503c <new_exp+0x38>
   15050:	e3a00014 	mov	r0, #20
   15054:	eb003717 	bl	22cb8 <__libc_malloc>
   15058:	e3500000 	cmp	r0, #0
   1505c:	0a00000a 	beq	1508c <new_exp+0x88>
   15060:	e2873008 	add	r3, r7, #8
   15064:	e0803003 	add	r3, r0, r3
   15068:	e15a0008 	cmp	sl, r8
   1506c:	e8800220 	stm	r0, {r5, r9}
   15070:	e4036004 	str	r6, [r3], #-4
   15074:	0a000003 	beq	15088 <new_exp+0x84>
   15078:	e53a6004 	ldr	r6, [sl, #-4]!
   1507c:	e15a0008 	cmp	sl, r8
   15080:	e4036004 	str	r6, [r3], #-4
   15084:	1afffffb 	bne	15078 <new_exp+0x74>
   15088:	e8bd87f0 	pop	{r4, r5, r6, r7, r8, r9, sl, pc}
   1508c:	e7986104 	ldr	r6, [r8, r4, lsl #2]
   15090:	e2455107 	sub	r5, r5, #-1073741823	; 0xc0000001
   15094:	e0885105 	add	r5, r8, r5, lsl #2
   15098:	ea000000 	b	150a0 <new_exp+0x9c>
   1509c:	e5356004 	ldr	r6, [r5, #-4]!
   150a0:	e1a00006 	mov	r0, r6
   150a4:	e2444001 	sub	r4, r4, #1
   150a8:	ebffffbe 	bl	14fa8 <__gettext_free_exp>
   150ac:	e3740001 	cmn	r4, #1
   150b0:	1afffff9 	bne	1509c <new_exp+0x98>
   150b4:	e3a00000 	mov	r0, #0
   150b8:	e8bd87f0 	pop	{r4, r5, r6, r7, r8, r9, sl, pc}
   150bc:	e3a00014 	mov	r0, #20
   150c0:	eb0036fc 	bl	22cb8 <__libc_malloc>
   150c4:	e3500000 	cmp	r0, #0
   150c8:	0afffff9 	beq	150b4 <new_exp+0xb0>
   150cc:	e8800220 	stm	r0, {r5, r9}
   150d0:	e8bd87f0 	pop	{r4, r5, r6, r7, r8, r9, sl, pc}

000150d4 <__gettextparse>:
   150d4:	e3a03000 	mov	r3, #0
   150d8:	e92d4ff0 	push	{r4, r5, r6, r7, r8, r9, sl, fp, lr}
   150dc:	e24dde4d 	sub	sp, sp, #1232	; 0x4d0
   150e0:	e24dd00c 	sub	sp, sp, #12
   150e4:	e28d5028 	add	r5, sp, #40	; 0x28
   150e8:	e1a0b003 	mov	fp, r3
   150ec:	e1a07005 	mov	r7, r5
   150f0:	e3a0a0c8 	mov	sl, #200	; 0xc8
   150f4:	e3e09001 	mvn	r9, #1
   150f8:	e28d4f6e 	add	r4, sp, #440	; 0x1b8
   150fc:	e59f685c 	ldr	r6, [pc, #2140]	; 15960 <__gettextparse+0x88c>
   15100:	e58d300c 	str	r3, [sp, #12]
   15104:	e58d0010 	str	r0, [sp, #16]
   15108:	e58d4008 	str	r4, [sp, #8]
   1510c:	e24a3106 	sub	r3, sl, #-2147483647	; 0x80000001
   15110:	e1a03083 	lsl	r3, r3, #1
   15114:	e0872003 	add	r2, r7, r3
   15118:	e1550002 	cmp	r5, r2
   1511c:	e1c5b0b0 	strh	fp, [r5]
   15120:	3a000032 	bcc	151f0 <__gettextparse+0x11c>
   15124:	e59f2838 	ldr	r2, [pc, #2104]	; 15964 <__gettextparse+0x890>
   15128:	e0458007 	sub	r8, r5, r7
   1512c:	e1a080c8 	asr	r8, r8, #1
   15130:	e15a0002 	cmp	sl, r2
   15134:	e2888001 	add	r8, r8, #1
   15138:	8a0001e8 	bhi	158e0 <__gettextparse+0x80c>
   1513c:	e2833002 	add	r3, r3, #2
   15140:	e2822001 	add	r2, r2, #1
   15144:	e1530002 	cmp	r3, r2
   15148:	31a0a003 	movcc	sl, r3
   1514c:	21a0a002 	movcs	sl, r2
   15150:	e1a0508a 	lsl	r5, sl, #1
   15154:	e085000a 	add	r0, r5, sl
   15158:	e1a00080 	lsl	r0, r0, #1
   1515c:	e2800003 	add	r0, r0, #3
   15160:	eb0036d4 	bl	22cb8 <__libc_malloc>
   15164:	e2503000 	subs	r3, r0, #0
   15168:	e58d3004 	str	r3, [sp, #4]
   1516c:	0a0001db 	beq	158e0 <__gettextparse+0x80c>
   15170:	e1a04088 	lsl	r4, r8, #1
   15174:	e1a02004 	mov	r2, r4
   15178:	e1a01007 	mov	r1, r7
   1517c:	eb0045f3 	bl	26950 <memcpy>
   15180:	e59d2004 	ldr	r2, [sp, #4]
   15184:	e2853003 	add	r3, r5, #3
   15188:	e3c33003 	bic	r3, r3, #3
   1518c:	e0823003 	add	r3, r2, r3
   15190:	e1a08108 	lsl	r8, r8, #2
   15194:	e1a00003 	mov	r0, r3
   15198:	e1a02008 	mov	r2, r8
   1519c:	e59d1008 	ldr	r1, [sp, #8]
   151a0:	eb0045ea 	bl	26950 <memcpy>
   151a4:	e28d2028 	add	r2, sp, #40	; 0x28
   151a8:	e1570002 	cmp	r7, r2
   151ac:	e1a03000 	mov	r3, r0
   151b0:	0a000003 	beq	151c4 <__gettextparse+0xf0>
   151b4:	e58d0008 	str	r0, [sp, #8]
   151b8:	e1a00007 	mov	r0, r7
   151bc:	eb00389e 	bl	2343c <__cfree>
   151c0:	e59d3008 	ldr	r3, [sp, #8]
   151c4:	e59d1004 	ldr	r1, [sp, #4]
   151c8:	e2444002 	sub	r4, r4, #2
   151cc:	e2452002 	sub	r2, r5, #2
   151d0:	e0812002 	add	r2, r1, r2
   151d4:	e0815004 	add	r5, r1, r4
   151d8:	e2488004 	sub	r8, r8, #4
   151dc:	e1550002 	cmp	r5, r2
   151e0:	e0834008 	add	r4, r3, r8
   151e4:	2a0001c3 	bcs	158f8 <__gettextparse+0x824>
   151e8:	e1a07001 	mov	r7, r1
   151ec:	e58d3008 	str	r3, [sp, #8]
   151f0:	e35b0009 	cmp	fp, #9
   151f4:	0a0001bc 	beq	158ec <__gettextparse+0x818>
   151f8:	e19630db 	ldrsb	r3, [r6, fp]
   151fc:	e373000a 	cmn	r3, #10
   15200:	0a000010 	beq	15248 <__gettextparse+0x174>
   15204:	e3790002 	cmn	r9, #2
   15208:	0a000080 	beq	15410 <__gettextparse+0x33c>
   1520c:	e3590000 	cmp	r9, #0
   15210:	da000068 	ble	153b8 <__gettextparse+0x2e4>
   15214:	e59f274c 	ldr	r2, [pc, #1868]	; 15968 <__gettextparse+0x894>
   15218:	e1590002 	cmp	r9, r2
   1521c:	c3a02002 	movgt	r2, #2
   15220:	d0862009 	addle	r2, r6, r9
   15224:	d5d2201c 	ldrble	r2, [r2, #28]
   15228:	e0821003 	add	r1, r2, r3
   1522c:	e3510036 	cmp	r1, #54	; 0x36
   15230:	8a000004 	bhi	15248 <__gettextparse+0x174>
   15234:	e0861001 	add	r1, r6, r1
   15238:	e2810f49 	add	r0, r1, #292	; 0x124
   1523c:	e1d000d0 	ldrsb	r0, [r0]
   15240:	e1520000 	cmp	r2, r0
   15244:	0a000065 	beq	153e0 <__gettextparse+0x30c>
   15248:	e086b00b 	add	fp, r6, fp
   1524c:	e5db2194 	ldrb	r2, [fp, #404]	; 0x194
   15250:	e3520000 	cmp	r2, #0
   15254:	0a000013 	beq	152a8 <__gettextparse+0x1d4>
   15258:	e0863002 	add	r3, r6, r2
   1525c:	e5d381b0 	ldrb	r8, [r3, #432]	; 0x1b0
   15260:	e2423002 	sub	r3, r2, #2
   15264:	e2681001 	rsb	r1, r8, #1
   15268:	e7940101 	ldr	r0, [r4, r1, lsl #2]
   1526c:	e353000b 	cmp	r3, #11
   15270:	979ff103 	ldrls	pc, [pc, r3, lsl #2]
   15274:	ea0001a2 	b	15904 <__gettextparse+0x830>
   15278:	00015658 	.word	0x00015658
   1527c:	00015688 	.word	0x00015688
   15280:	000156ac 	.word	0x000156ac
   15284:	000156c0 	.word	0x000156c0
   15288:	0001533c 	.word	0x0001533c
   1528c:	0001533c 	.word	0x0001533c
   15290:	0001533c 	.word	0x0001533c
   15294:	0001533c 	.word	0x0001533c
   15298:	00015730 	.word	0x00015730
   1529c:	00015648 	.word	0x00015648
   152a0:	000156f4 	.word	0x000156f4
   152a4:	000156d4 	.word	0x000156d4
   152a8:	e59d200c 	ldr	r2, [sp, #12]
   152ac:	e3520003 	cmp	r2, #3
   152b0:	1a000005 	bne	152cc <__gettextparse+0x1f8>
   152b4:	ea000042 	b	153c4 <__gettextparse+0x2f0>
   152b8:	e1570005 	cmp	r7, r5
   152bc:	0a000014 	beq	15314 <__gettextparse+0x240>
   152c0:	e17530f2 	ldrsh	r3, [r5, #-2]!
   152c4:	e2444004 	sub	r4, r4, #4
   152c8:	e19630d3 	ldrsb	r3, [r6, r3]
   152cc:	e373000a 	cmn	r3, #10
   152d0:	e2832001 	add	r2, r3, #1
   152d4:	0afffff7 	beq	152b8 <__gettextparse+0x1e4>
   152d8:	e3520036 	cmp	r2, #54	; 0x36
   152dc:	e0863002 	add	r3, r6, r2
   152e0:	8afffff4 	bhi	152b8 <__gettextparse+0x1e4>
   152e4:	e5d32124 	ldrb	r2, [r3, #292]	; 0x124
   152e8:	e3520001 	cmp	r2, #1
   152ec:	1afffff1 	bne	152b8 <__gettextparse+0x1e4>
   152f0:	e5d3b15c 	ldrb	fp, [r3, #348]	; 0x15c
   152f4:	e35b0000 	cmp	fp, #0
   152f8:	0affffee 	beq	152b8 <__gettextparse+0x1e4>
   152fc:	e59d3014 	ldr	r3, [sp, #20]
   15300:	e2844004 	add	r4, r4, #4
   15304:	e5843000 	str	r3, [r4]
   15308:	e3a03003 	mov	r3, #3
   1530c:	e58d300c 	str	r3, [sp, #12]
   15310:	ea000026 	b	153b0 <__gettextparse+0x2dc>
   15314:	e3a04001 	mov	r4, #1
   15318:	e28d3028 	add	r3, sp, #40	; 0x28
   1531c:	e1550003 	cmp	r5, r3
   15320:	0a000001 	beq	1532c <__gettextparse+0x258>
   15324:	e1a00005 	mov	r0, r5
   15328:	eb003843 	bl	2343c <__cfree>
   1532c:	e1a00004 	mov	r0, r4
   15330:	e28dde4d 	add	sp, sp, #1232	; 0x4d0
   15334:	e28dd00c 	add	sp, sp, #12
   15338:	e8bd8ff0 	pop	{r4, r5, r6, r7, r8, r9, sl, fp, pc}
   1533c:	e5143008 	ldr	r3, [r4, #-8]
   15340:	e28d201c 	add	r2, sp, #28
   15344:	e8141002 	ldmda	r4, {r1, ip}
   15348:	e3a00002 	mov	r0, #2
   1534c:	e58dc020 	str	ip, [sp, #32]
   15350:	e58d301c 	str	r3, [sp, #28]
   15354:	ebffff2a 	bl	15004 <new_exp>
   15358:	e3e0b000 	mvn	fp, #0
   1535c:	e3a01002 	mov	r1, #2
   15360:	e1a03108 	lsl	r3, r8, #2
   15364:	e1a02088 	lsl	r2, r8, #1
   15368:	e2633000 	rsb	r3, r3, #0
   1536c:	e2622000 	rsb	r2, r2, #0
   15370:	e1b520f2 	ldrsh	r2, [r5, r2]!	; <UNPREDICTABLE>
   15374:	e0844003 	add	r4, r4, r3
   15378:	e082b00b 	add	fp, r2, fp
   1537c:	e35b0036 	cmp	fp, #54	; 0x36
   15380:	e5840004 	str	r0, [r4, #4]
   15384:	e2844004 	add	r4, r4, #4
   15388:	8a000005 	bhi	153a4 <__gettextparse+0x2d0>
   1538c:	e086b00b 	add	fp, r6, fp
   15390:	e28b3f49 	add	r3, fp, #292	; 0x124
   15394:	e1d330d0 	ldrsb	r3, [r3]
   15398:	e1530002 	cmp	r3, r2
   1539c:	05dbb15c 	ldrbeq	fp, [fp, #348]	; 0x15c
   153a0:	0a000002 	beq	153b0 <__gettextparse+0x2dc>
   153a4:	e0861001 	add	r1, r6, r1
   153a8:	e2811f75 	add	r1, r1, #468	; 0x1d4
   153ac:	e1d1b0d0 	ldrsb	fp, [r1]
   153b0:	e2855002 	add	r5, r5, #2
   153b4:	eaffff54 	b	1510c <__gettextparse+0x38>
   153b8:	e3a09000 	mov	r9, #0
   153bc:	e1a02009 	mov	r2, r9
   153c0:	eaffff98 	b	15228 <__gettextparse+0x154>
   153c4:	e3590000 	cmp	r9, #0
   153c8:	c3e09001 	mvngt	r9, #1
   153cc:	caffffbe 	bgt	152cc <__gettextparse+0x1f8>
   153d0:	1affffbd 	bne	152cc <__gettextparse+0x1f8>
   153d4:	e1a05007 	mov	r5, r7
   153d8:	e3a04001 	mov	r4, #1
   153dc:	eaffffcd 	b	15318 <__gettextparse+0x244>
   153e0:	e5d1b15c 	ldrb	fp, [r1, #348]	; 0x15c
   153e4:	e35b0000 	cmp	fp, #0
   153e8:	0a0000d5 	beq	15744 <__gettextparse+0x670>
   153ec:	e59d300c 	ldr	r3, [sp, #12]
   153f0:	e3e09001 	mvn	r9, #1
   153f4:	e3530000 	cmp	r3, #0
   153f8:	12433001 	subne	r3, r3, #1
   153fc:	158d300c 	strne	r3, [sp, #12]
   15400:	e59d3014 	ldr	r3, [sp, #20]
   15404:	e2844004 	add	r4, r4, #4
   15408:	e5843000 	str	r3, [r4]
   1540c:	eaffffe7 	b	153b0 <__gettextparse+0x2dc>
   15410:	e59d2010 	ldr	r2, [sp, #16]
   15414:	e5920000 	ldr	r0, [r2]
   15418:	e5d02000 	ldrb	r2, [r0]
   1541c:	e3520000 	cmp	r2, #0
   15420:	1a000003 	bne	15434 <__gettextparse+0x360>
   15424:	ea0000cb 	b	15758 <__gettextparse+0x684>
   15428:	e5f02001 	ldrb	r2, [r0, #1]!
   1542c:	e3520000 	cmp	r2, #0
   15430:	0a0000c8 	beq	15758 <__gettextparse+0x684>
   15434:	e3520020 	cmp	r2, #32
   15438:	13520009 	cmpne	r2, #9
   1543c:	0afffff9 	beq	15428 <__gettextparse+0x354>
   15440:	e2801001 	add	r1, r0, #1
   15444:	e1a09002 	mov	r9, r2
   15448:	e352007c 	cmp	r2, #124	; 0x7c
   1544c:	979ff102 	ldrls	pc, [pc, r2, lsl #2]
   15450:	ea0000cf 	b	15794 <__gettextparse+0x6c0>
   15454:	00015758 	.word	0x00015758
   15458:	00015794 	.word	0x00015794
   1545c:	00015794 	.word	0x00015794
   15460:	00015794 	.word	0x00015794
   15464:	00015794 	.word	0x00015794
   15468:	00015794 	.word	0x00015794
   1546c:	00015794 	.word	0x00015794
   15470:	00015794 	.word	0x00015794
   15474:	00015794 	.word	0x00015794
   15478:	00015794 	.word	0x00015794
   1547c:	00015758 	.word	0x00015758
   15480:	00015794 	.word	0x00015794
   15484:	00015794 	.word	0x00015794
   15488:	00015794 	.word	0x00015794
   1548c:	00015794 	.word	0x00015794
   15490:	00015794 	.word	0x00015794
   15494:	00015794 	.word	0x00015794
   15498:	00015794 	.word	0x00015794
   1549c:	00015794 	.word	0x00015794
   154a0:	00015794 	.word	0x00015794
   154a4:	00015794 	.word	0x00015794
   154a8:	00015794 	.word	0x00015794
   154ac:	00015794 	.word	0x00015794
   154b0:	00015794 	.word	0x00015794
   154b4:	00015794 	.word	0x00015794
   154b8:	00015794 	.word	0x00015794
   154bc:	00015794 	.word	0x00015794
   154c0:	00015794 	.word	0x00015794
   154c4:	00015794 	.word	0x00015794
   154c8:	00015794 	.word	0x00015794
   154cc:	00015794 	.word	0x00015794
   154d0:	00015794 	.word	0x00015794
   154d4:	00015794 	.word	0x00015794
   154d8:	000157bc 	.word	0x000157bc
   154dc:	00015794 	.word	0x00015794
   154e0:	00015794 	.word	0x00015794
   154e4:	00015794 	.word	0x00015794
   154e8:	000157a8 	.word	0x000157a8
   154ec:	00015784 	.word	0x00015784
   154f0:	00015794 	.word	0x00015794
   154f4:	0001576c 	.word	0x0001576c
   154f8:	0001576c 	.word	0x0001576c
   154fc:	00015860 	.word	0x00015860
   15500:	0001584c 	.word	0x0001584c
   15504:	00015794 	.word	0x00015794
   15508:	00015838 	.word	0x00015838
   1550c:	00015794 	.word	0x00015794
   15510:	00015824 	.word	0x00015824
   15514:	00015894 	.word	0x00015894
   15518:	00015894 	.word	0x00015894
   1551c:	00015894 	.word	0x00015894
   15520:	00015894 	.word	0x00015894
   15524:	00015894 	.word	0x00015894
   15528:	00015894 	.word	0x00015894
   1552c:	00015894 	.word	0x00015894
   15530:	00015894 	.word	0x00015894
   15534:	00015894 	.word	0x00015894
   15538:	00015894 	.word	0x00015894
   1553c:	0001576c 	.word	0x0001576c
   15540:	00015758 	.word	0x00015758
   15544:	00015874 	.word	0x00015874
   15548:	00015800 	.word	0x00015800
   1554c:	000157e0 	.word	0x000157e0
   15550:	0001576c 	.word	0x0001576c
   15554:	00015794 	.word	0x00015794
   15558:	00015794 	.word	0x00015794
   1555c:	00015794 	.word	0x00015794
   15560:	00015794 	.word	0x00015794
   15564:	00015794 	.word	0x00015794
   15568:	00015794 	.word	0x00015794
   1556c:	00015794 	.word	0x00015794
   15570:	00015794 	.word	0x00015794
   15574:	00015794 	.word	0x00015794
   15578:	00015794 	.word	0x00015794
   1557c:	00015794 	.word	0x00015794
   15580:	00015794 	.word	0x00015794
   15584:	00015794 	.word	0x00015794
   15588:	00015794 	.word	0x00015794
   1558c:	00015794 	.word	0x00015794
   15590:	00015794 	.word	0x00015794
   15594:	00015794 	.word	0x00015794
   15598:	00015794 	.word	0x00015794
   1559c:	00015794 	.word	0x00015794
   155a0:	00015794 	.word	0x00015794
   155a4:	00015794 	.word	0x00015794
   155a8:	00015794 	.word	0x00015794
   155ac:	00015794 	.word	0x00015794
   155b0:	00015794 	.word	0x00015794
   155b4:	00015794 	.word	0x00015794
   155b8:	00015794 	.word	0x00015794
   155bc:	00015794 	.word	0x00015794
   155c0:	00015794 	.word	0x00015794
   155c4:	00015794 	.word	0x00015794
   155c8:	00015794 	.word	0x00015794
   155cc:	00015794 	.word	0x00015794
   155d0:	00015794 	.word	0x00015794
   155d4:	00015794 	.word	0x00015794
   155d8:	00015794 	.word	0x00015794
   155dc:	00015794 	.word	0x00015794
   155e0:	00015794 	.word	0x00015794
   155e4:	00015794 	.word	0x00015794
   155e8:	00015794 	.word	0x00015794
   155ec:	00015794 	.word	0x00015794
   155f0:	00015794 	.word	0x00015794
   155f4:	00015794 	.word	0x00015794
   155f8:	00015794 	.word	0x00015794
   155fc:	00015794 	.word	0x00015794
   15600:	00015794 	.word	0x00015794
   15604:	00015794 	.word	0x00015794
   15608:	00015794 	.word	0x00015794
   1560c:	0001576c 	.word	0x0001576c
   15610:	00015794 	.word	0x00015794
   15614:	00015794 	.word	0x00015794
   15618:	00015794 	.word	0x00015794
   1561c:	00015794 	.word	0x00015794
   15620:	00015794 	.word	0x00015794
   15624:	00015794 	.word	0x00015794
   15628:	00015794 	.word	0x00015794
   1562c:	00015794 	.word	0x00015794
   15630:	00015794 	.word	0x00015794
   15634:	00015794 	.word	0x00015794
   15638:	00015794 	.word	0x00015794
   1563c:	00015794 	.word	0x00015794
   15640:	00015794 	.word	0x00015794
   15644:	00015784 	.word	0x00015784
   15648:	e3a02000 	mov	r2, #0
   1564c:	e1a01002 	mov	r1, r2
   15650:	e1a00002 	mov	r0, r2
   15654:	eaffff3e 	b	15354 <__gettextparse+0x280>
   15658:	e5941000 	ldr	r1, [r4]
   1565c:	e3510000 	cmp	r1, #0
   15660:	0affff5b 	beq	153d4 <__gettextparse+0x300>
   15664:	e59dc010 	ldr	ip, [sp, #16]
   15668:	e1a03108 	lsl	r3, r8, #2
   1566c:	e1a02088 	lsl	r2, r8, #1
   15670:	e58c1004 	str	r1, [ip, #4]
   15674:	e2633000 	rsb	r3, r3, #0
   15678:	e2622000 	rsb	r2, r2, #0
   1567c:	e3e0b009 	mvn	fp, #9
   15680:	e3a01001 	mov	r1, #1
   15684:	eaffff39 	b	15370 <__gettextparse+0x29c>
   15688:	e5140008 	ldr	r0, [r4, #-8]
   1568c:	e594c000 	ldr	ip, [r4]
   15690:	e58d0020 	str	r0, [sp, #32]
   15694:	e5143010 	ldr	r3, [r4, #-16]
   15698:	e28d201c 	add	r2, sp, #28
   1569c:	e3a01010 	mov	r1, #16
   156a0:	e3a00003 	mov	r0, #3
   156a4:	e58dc024 	str	ip, [sp, #36]	; 0x24
   156a8:	eaffff28 	b	15350 <__gettextparse+0x27c>
   156ac:	e594c000 	ldr	ip, [r4]
   156b0:	e5143008 	ldr	r3, [r4, #-8]
   156b4:	e28d201c 	add	r2, sp, #28
   156b8:	e3a0100f 	mov	r1, #15
   156bc:	eaffff21 	b	15348 <__gettextparse+0x274>
   156c0:	e594c000 	ldr	ip, [r4]
   156c4:	e5143008 	ldr	r3, [r4, #-8]
   156c8:	e28d201c 	add	r2, sp, #28
   156cc:	e3a0100e 	mov	r1, #14
   156d0:	eaffff1c 	b	15348 <__gettextparse+0x274>
   156d4:	e3a01002 	mov	r1, #2
   156d8:	e1a02088 	lsl	r2, r8, #1
   156dc:	e1a03118 	lsl	r3, r8, r1
   156e0:	e3e0b000 	mvn	fp, #0
   156e4:	e5140004 	ldr	r0, [r4, #-4]
   156e8:	e2633000 	rsb	r3, r3, #0
   156ec:	e2622000 	rsb	r2, r2, #0
   156f0:	eaffff1e 	b	15370 <__gettextparse+0x29c>
   156f4:	e3a02000 	mov	r2, #0
   156f8:	e3a01001 	mov	r1, #1
   156fc:	e1a00002 	mov	r0, r2
   15700:	ebfffe3f 	bl	15004 <new_exp>
   15704:	e3500000 	cmp	r0, #0
   15708:	0affff12 	beq	15358 <__gettextparse+0x284>
   1570c:	e5941000 	ldr	r1, [r4]
   15710:	e1a03108 	lsl	r3, r8, #2
   15714:	e1a02088 	lsl	r2, r8, #1
   15718:	e5801008 	str	r1, [r0, #8]
   1571c:	e2633000 	rsb	r3, r3, #0
   15720:	e2622000 	rsb	r2, r2, #0
   15724:	e3e0b000 	mvn	fp, #0
   15728:	e3a01002 	mov	r1, #2
   1572c:	eaffff0f 	b	15370 <__gettextparse+0x29c>
   15730:	e5943000 	ldr	r3, [r4]
   15734:	e28d201c 	add	r2, sp, #28
   15738:	e3a01002 	mov	r1, #2
   1573c:	e3a00001 	mov	r0, #1
   15740:	eaffff02 	b	15350 <__gettextparse+0x27c>
   15744:	e5940004 	ldr	r0, [r4, #4]
   15748:	e1a0200b 	mov	r2, fp
   1574c:	e1a0300b 	mov	r3, fp
   15750:	e3e0100f 	mvn	r1, #15
   15754:	eaffff05 	b	15370 <__gettextparse+0x29c>
   15758:	e3a02000 	mov	r2, #0
   1575c:	e59d1010 	ldr	r1, [sp, #16]
   15760:	e1a09002 	mov	r9, r2
   15764:	e5810000 	str	r0, [r1]
   15768:	eafffeae 	b	15228 <__gettextparse+0x154>
   1576c:	e59d0010 	ldr	r0, [sp, #16]
   15770:	e3520000 	cmp	r2, #0
   15774:	e5801000 	str	r1, [r0]
   15778:	10862002 	addne	r2, r6, r2
   1577c:	15d2201c 	ldrbne	r2, [r2, #28]
   15780:	eafffea8 	b	15228 <__gettextparse+0x154>
   15784:	e5d0c001 	ldrb	ip, [r0, #1]
   15788:	e152000c 	cmp	r2, ip
   1578c:	02801002 	addeq	r1, r0, #2
   15790:	0afffff5 	beq	1576c <__gettextparse+0x698>
   15794:	e3a02001 	mov	r2, #1
   15798:	e3a09c01 	mov	r9, #256	; 0x100
   1579c:	e59d0010 	ldr	r0, [sp, #16]
   157a0:	e5801000 	str	r1, [r0]
   157a4:	eafffe9f 	b	15228 <__gettextparse+0x154>
   157a8:	e3a00005 	mov	r0, #5
   157ac:	e3a02009 	mov	r2, #9
   157b0:	e58d0014 	str	r0, [sp, #20]
   157b4:	e59f91b0 	ldr	r9, [pc, #432]	; 1596c <__gettextparse+0x898>
   157b8:	eafffff7 	b	1579c <__gettextparse+0x6c8>
   157bc:	e5d0c001 	ldrb	ip, [r0, #1]
   157c0:	e35c003d 	cmp	ip, #61	; 0x3d
   157c4:	1affffe8 	bne	1576c <__gettextparse+0x698>
   157c8:	e2801002 	add	r1, r0, #2
   157cc:	e3a0000d 	mov	r0, #13
   157d0:	e3a02006 	mov	r2, #6
   157d4:	e58d0014 	str	r0, [sp, #20]
   157d8:	e59f9190 	ldr	r9, [pc, #400]	; 15970 <__gettextparse+0x89c>
   157dc:	eaffffee 	b	1579c <__gettextparse+0x6c8>
   157e0:	e5d02001 	ldrb	r2, [r0, #1]
   157e4:	e352003d 	cmp	r2, #61	; 0x3d
   157e8:	0a000056 	beq	15948 <__gettextparse+0x874>
   157ec:	e3a00009 	mov	r0, #9
   157f0:	e3a02007 	mov	r2, #7
   157f4:	e58d0014 	str	r0, [sp, #20]
   157f8:	e59f9174 	ldr	r9, [pc, #372]	; 15974 <__gettextparse+0x8a0>
   157fc:	eaffffe6 	b	1579c <__gettextparse+0x6c8>
   15800:	e5d02001 	ldrb	r2, [r0, #1]
   15804:	e352003d 	cmp	r2, #61	; 0x3d
   15808:	1affffe1 	bne	15794 <__gettextparse+0x6c0>
   1580c:	e2801002 	add	r1, r0, #2
   15810:	e3a0000c 	mov	r0, #12
   15814:	e3a02006 	mov	r2, #6
   15818:	e58d0014 	str	r0, [sp, #20]
   1581c:	e59f914c 	ldr	r9, [pc, #332]	; 15970 <__gettextparse+0x89c>
   15820:	eaffffdd 	b	1579c <__gettextparse+0x6c8>
   15824:	e3a00004 	mov	r0, #4
   15828:	e3a02009 	mov	r2, #9
   1582c:	e58d0014 	str	r0, [sp, #20]
   15830:	e59f9134 	ldr	r9, [pc, #308]	; 1596c <__gettextparse+0x898>
   15834:	eaffffd8 	b	1579c <__gettextparse+0x6c8>
   15838:	e3a00007 	mov	r0, #7
   1583c:	e3a02008 	mov	r2, #8
   15840:	e58d0014 	str	r0, [sp, #20]
   15844:	e3a09f41 	mov	r9, #260	; 0x104
   15848:	eaffffd3 	b	1579c <__gettextparse+0x6c8>
   1584c:	e3a00006 	mov	r0, #6
   15850:	e3a02008 	mov	r2, #8
   15854:	e58d0014 	str	r0, [sp, #20]
   15858:	e3a09f41 	mov	r9, #260	; 0x104
   1585c:	eaffffce 	b	1579c <__gettextparse+0x6c8>
   15860:	e3a00003 	mov	r0, #3
   15864:	e3a02009 	mov	r2, #9
   15868:	e58d0014 	str	r0, [sp, #20]
   1586c:	e59f90f8 	ldr	r9, [pc, #248]	; 1596c <__gettextparse+0x898>
   15870:	eaffffc9 	b	1579c <__gettextparse+0x6c8>
   15874:	e5d02001 	ldrb	r2, [r0, #1]
   15878:	e352003d 	cmp	r2, #61	; 0x3d
   1587c:	0a00002b 	beq	15930 <__gettextparse+0x85c>
   15880:	e3a00008 	mov	r0, #8
   15884:	e3a02007 	mov	r2, #7
   15888:	e58d0014 	str	r0, [sp, #20]
   1588c:	e59f90e0 	ldr	r9, [pc, #224]	; 15974 <__gettextparse+0x8a0>
   15890:	eaffffc1 	b	1579c <__gettextparse+0x6c8>
   15894:	e5d00001 	ldrb	r0, [r0, #1]
   15898:	e2422030 	sub	r2, r2, #48	; 0x30
   1589c:	e1a0c002 	mov	ip, r2
   158a0:	e58d2014 	str	r2, [sp, #20]
   158a4:	e2402030 	sub	r2, r0, #48	; 0x30
   158a8:	e3520009 	cmp	r2, #9
   158ac:	8a000008 	bhi	158d4 <__gettextparse+0x800>
   158b0:	e1a0200c 	mov	r2, ip
   158b4:	e0822102 	add	r2, r2, r2, lsl #2
   158b8:	e0802082 	add	r2, r0, r2, lsl #1
   158bc:	e5f10001 	ldrb	r0, [r1, #1]!
   158c0:	e2422030 	sub	r2, r2, #48	; 0x30
   158c4:	e240c030 	sub	ip, r0, #48	; 0x30
   158c8:	e35c0009 	cmp	ip, #9
   158cc:	9afffff8 	bls	158b4 <__gettextparse+0x7e0>
   158d0:	e58d2014 	str	r2, [sp, #20]
   158d4:	e3a0200b 	mov	r2, #11
   158d8:	e59f9088 	ldr	r9, [pc, #136]	; 15968 <__gettextparse+0x894>
   158dc:	eaffffae 	b	1579c <__gettextparse+0x6c8>
   158e0:	e1a05007 	mov	r5, r7
   158e4:	e3a04002 	mov	r4, #2
   158e8:	eafffe8a 	b	15318 <__gettextparse+0x244>
   158ec:	e1a05007 	mov	r5, r7
   158f0:	e3a04000 	mov	r4, #0
   158f4:	eafffe87 	b	15318 <__gettextparse+0x244>
   158f8:	e59d5004 	ldr	r5, [sp, #4]
   158fc:	e3a04001 	mov	r4, #1
   15900:	eafffe84 	b	15318 <__gettextparse+0x244>
   15904:	e0862002 	add	r2, r6, r2
   15908:	e5d211c0 	ldrb	r1, [r2, #448]	; 0x1c0
   1590c:	e1a03108 	lsl	r3, r8, #2
   15910:	e2411010 	sub	r1, r1, #16
   15914:	e086c001 	add	ip, r6, r1
   15918:	e28cce1d 	add	ip, ip, #464	; 0x1d0
   1591c:	e1a02088 	lsl	r2, r8, #1
   15920:	e1dcb0d0 	ldrsb	fp, [ip]
   15924:	e2633000 	rsb	r3, r3, #0
   15928:	e2622000 	rsb	r2, r2, #0
   1592c:	eafffe8f 	b	15370 <__gettextparse+0x29c>
   15930:	e2801002 	add	r1, r0, #2
   15934:	e3a0000a 	mov	r0, #10
   15938:	e3a02007 	mov	r2, #7
   1593c:	e58d0014 	str	r0, [sp, #20]
   15940:	e59f902c 	ldr	r9, [pc, #44]	; 15974 <__gettextparse+0x8a0>
   15944:	eaffff94 	b	1579c <__gettextparse+0x6c8>
   15948:	e2801002 	add	r1, r0, #2
   1594c:	e3a0000b 	mov	r0, #11
   15950:	e3a02007 	mov	r2, #7
   15954:	e58d0014 	str	r0, [sp, #20]
   15958:	e59f9014 	ldr	r9, [pc, #20]	; 15974 <__gettextparse+0x8a0>
   1595c:	eaffff8e 	b	1579c <__gettextparse+0x6c8>
   15960:	00071728 	.word	0x00071728
   15964:	0000270f 	.word	0x0000270f
   15968:	00000106 	.word	0x00000106
   1596c:	00000105 	.word	0x00000105
   15970:	00000102 	.word	0x00000102
   15974:	00000103 	.word	0x00000103

00015978 <__gettext_extract_plural>:
   15978:	e92d40f0 	push	{r4, r5, r6, r7, lr}
   1597c:	e2504000 	subs	r4, r0, #0
   15980:	e24dd014 	sub	sp, sp, #20
   15984:	e1a06001 	mov	r6, r1
   15988:	e1a05002 	mov	r5, r2
   1598c:	0a00002b 	beq	15a40 <__gettext_extract_plural+0xc8>
   15990:	e59f10cc 	ldr	r1, [pc, #204]	; 15a64 <__gettext_extract_plural+0xec>
   15994:	eb0040b0 	bl	25c5c <strstr>
   15998:	e59f10c8 	ldr	r1, [pc, #200]	; 15a68 <__gettext_extract_plural+0xf0>
   1599c:	e1a07000 	mov	r7, r0
   159a0:	e1a00004 	mov	r0, r4
   159a4:	eb0040ac 	bl	25c5c <strstr>
   159a8:	e3500000 	cmp	r0, #0
   159ac:	13570000 	cmpne	r7, #0
   159b0:	0a000022 	beq	15a40 <__gettext_extract_plural+0xc8>
   159b4:	e5d03009 	ldrb	r3, [r0, #9]
   159b8:	e2804009 	add	r4, r0, #9
   159bc:	e3530000 	cmp	r3, #0
   159c0:	0a00001e 	beq	15a40 <__gettext_extract_plural+0xc8>
   159c4:	ebffed31 	bl	10e90 <__aeabi_read_tp>
   159c8:	e59f109c 	ldr	r1, [pc, #156]	; 15a6c <__gettext_extract_plural+0xf4>
   159cc:	e1a02083 	lsl	r2, r3, #1
   159d0:	e79f1001 	ldr	r1, [pc, r1]
   159d4:	e7901001 	ldr	r1, [r0, r1]
   159d8:	ea000003 	b	159ec <__gettext_extract_plural+0x74>
   159dc:	e5f43001 	ldrb	r3, [r4, #1]!
   159e0:	e3530000 	cmp	r3, #0
   159e4:	e1a02083 	lsl	r2, r3, #1
   159e8:	0a000014 	beq	15a40 <__gettext_extract_plural+0xc8>
   159ec:	e19120b2 	ldrh	r2, [r1, r2]
   159f0:	e3120a02 	tst	r2, #8192	; 0x2000
   159f4:	1afffff8 	bne	159dc <__gettext_extract_plural+0x64>
   159f8:	e2433030 	sub	r3, r3, #48	; 0x30
   159fc:	e3530009 	cmp	r3, #9
   15a00:	8a00000e 	bhi	15a40 <__gettext_extract_plural+0xc8>
   15a04:	e3a0200a 	mov	r2, #10
   15a08:	e28d1004 	add	r1, sp, #4
   15a0c:	e1a00004 	mov	r0, r4
   15a10:	eb00036a 	bl	167c0 <__strtoul>
   15a14:	e59d3004 	ldr	r3, [sp, #4]
   15a18:	e1530004 	cmp	r3, r4
   15a1c:	0a000007 	beq	15a40 <__gettext_extract_plural+0xc8>
   15a20:	e28d3010 	add	r3, sp, #16
   15a24:	e2877007 	add	r7, r7, #7
   15a28:	e5237008 	str	r7, [r3, #-8]!
   15a2c:	e5850000 	str	r0, [r5]
   15a30:	e1a00003 	mov	r0, r3
   15a34:	ebfffda6 	bl	150d4 <__gettextparse>
   15a38:	e3500000 	cmp	r0, #0
   15a3c:	0a000005 	beq	15a58 <__gettext_extract_plural+0xe0>
   15a40:	e3a03002 	mov	r3, #2
   15a44:	e59f2024 	ldr	r2, [pc, #36]	; 15a70 <__gettext_extract_plural+0xf8>
   15a48:	e5862000 	str	r2, [r6]
   15a4c:	e5853000 	str	r3, [r5]
   15a50:	e28dd014 	add	sp, sp, #20
   15a54:	e8bd80f0 	pop	{r4, r5, r6, r7, pc}
   15a58:	e59d300c 	ldr	r3, [sp, #12]
   15a5c:	e5863000 	str	r3, [r6]
   15a60:	eafffffa 	b	15a50 <__gettext_extract_plural+0xd8>
   15a64:	0007193c 	.word	0x0007193c
   15a68:	00071944 	.word	0x00071944
   15a6c:	00081678 	.word	0x00081678
   15a70:	00071900 	.word	0x00071900

00015a74 <__hash_string>:
   15a74:	e2402001 	sub	r2, r0, #1
   15a78:	e3a00000 	mov	r0, #0
   15a7c:	ea000003 	b	15a90 <__hash_string+0x1c>
   15a80:	e0830200 	add	r0, r3, r0, lsl #4
   15a84:	e210320f 	ands	r3, r0, #-268435456	; 0xf0000000
   15a88:	10200003 	eorne	r0, r0, r3
   15a8c:	10200c23 	eorne	r0, r0, r3, lsr #24
   15a90:	e5f23001 	ldrb	r3, [r2, #1]!
   15a94:	e3530000 	cmp	r3, #0
   15a98:	1afffff8 	bne	15a80 <__hash_string+0xc>
   15a9c:	e12fff1e 	bx	lr

00015aa0 <_setjmp>:
   15aa0:	e3a01000 	mov	r1, #0
   15aa4:	ea00827d 	b	364a0 <__sigsetjmp>

00015aa8 <abort>:
   15aa8:	e92d4080 	push	{r7, lr}
   15aac:	ebffecf7 	bl	10e90 <__aeabi_read_tp>
   15ab0:	e59f52a8 	ldr	r5, [pc, #680]	; 15d60 <abort+0x2b8>
   15ab4:	e2406d13 	sub	r6, r0, #1216	; 0x4c0
   15ab8:	e5953008 	ldr	r3, [r5, #8]
   15abc:	e24dde11 	sub	sp, sp, #272	; 0x110
   15ac0:	e1560003 	cmp	r6, r3
   15ac4:	0a00000e 	beq	15b04 <abort+0x5c>
   15ac8:	e3a01001 	mov	r1, #1
   15acc:	e1a02005 	mov	r2, r5
   15ad0:	e3a04000 	mov	r4, #0
   15ad4:	e5923000 	ldr	r3, [r2]
   15ad8:	e1530004 	cmp	r3, r4
   15adc:	1a000005 	bne	15af8 <abort+0x50>
   15ae0:	e1a00004 	mov	r0, r4
   15ae4:	e3e03a0f 	mvn	r3, #61440	; 0xf000
   15ae8:	e1a0e00f 	mov	lr, pc
   15aec:	e243f03f 	sub	pc, r3, #63	; 0x3f
   15af0:	3afffff7 	bcc	15ad4 <abort+0x2c>
   15af4:	e1a03004 	mov	r3, r4
   15af8:	e1530004 	cmp	r3, r4
   15afc:	1a000089 	bne	15d28 <abort+0x280>
   15b00:	e5856008 	str	r6, [r5, #8]
   15b04:	e5953004 	ldr	r3, [r5, #4]
   15b08:	e595400c 	ldr	r4, [r5, #12]
   15b0c:	e2833001 	add	r3, r3, #1
   15b10:	e3540000 	cmp	r4, #0
   15b14:	e5853004 	str	r3, [r5, #4]
   15b18:	0a00000e 	beq	15b58 <abort+0xb0>
   15b1c:	e3540001 	cmp	r4, #1
   15b20:	0a00006c 	beq	15cd8 <abort+0x230>
   15b24:	e3540002 	cmp	r4, #2
   15b28:	0a000018 	beq	15b90 <abort+0xe8>
   15b2c:	e3540003 	cmp	r4, #3
   15b30:	0a000082 	beq	15d40 <abort+0x298>
   15b34:	e3540004 	cmp	r4, #4
   15b38:	0a00006c 	beq	15cf0 <abort+0x248>
   15b3c:	e3540005 	cmp	r4, #5
   15b40:	0a00006f 	beq	15d04 <abort+0x25c>
   15b44:	e3540006 	cmp	r4, #6
   15b48:	0a000073 	beq	15d1c <abort+0x274>
   15b4c:	e3540007 	cmp	r4, #7
   15b50:	0a000041 	beq	15c5c <abort+0x1b4>
   15b54:	e7f000f0 	udf	#0
   15b58:	e3a07001 	mov	r7, #1
   15b5c:	e1a01004 	mov	r1, r4
   15b60:	e3a02080 	mov	r2, #128	; 0x80
   15b64:	e28d0004 	add	r0, sp, #4
   15b68:	e585700c 	str	r7, [r5, #12]
   15b6c:	eb004337 	bl	26850 <memset>
   15b70:	e3a03020 	mov	r3, #32
   15b74:	e1a02004 	mov	r2, r4
   15b78:	e28d1004 	add	r1, sp, #4
   15b7c:	e1a00007 	mov	r0, r7
   15b80:	e58d3004 	str	r3, [sp, #4]
   15b84:	eb0082e8 	bl	3672c <__sigprocmask>
   15b88:	e595400c 	ldr	r4, [r5, #12]
   15b8c:	eaffffe2 	b	15b1c <abort+0x74>
   15b90:	e3a02000 	mov	r2, #0
   15b94:	e5953004 	ldr	r3, [r5, #4]
   15b98:	e585200c 	str	r2, [r5, #12]
   15b9c:	e2433001 	sub	r3, r3, #1
   15ba0:	e1530002 	cmp	r3, r2
   15ba4:	e5853004 	str	r3, [r5, #4]
   15ba8:	0a00002f 	beq	15c6c <abort+0x1c4>
   15bac:	e3a00006 	mov	r0, #6
   15bb0:	eb008269 	bl	3655c <raise>
   15bb4:	e5953008 	ldr	r3, [r5, #8]
   15bb8:	e1560003 	cmp	r6, r3
   15bbc:	0a00000e 	beq	15bfc <abort+0x154>
   15bc0:	e3a01001 	mov	r1, #1
   15bc4:	e59f2194 	ldr	r2, [pc, #404]	; 15d60 <abort+0x2b8>
   15bc8:	e3a04000 	mov	r4, #0
   15bcc:	e5923000 	ldr	r3, [r2]
   15bd0:	e1530004 	cmp	r3, r4
   15bd4:	1a000005 	bne	15bf0 <abort+0x148>
   15bd8:	e1a00004 	mov	r0, r4
   15bdc:	e3e03a0f 	mvn	r3, #61440	; 0xf000
   15be0:	e1a0e00f 	mov	lr, pc
   15be4:	e243f03f 	sub	pc, r3, #63	; 0x3f
   15be8:	3afffff7 	bcc	15bcc <abort+0x124>
   15bec:	e1a03004 	mov	r3, r4
   15bf0:	e1530004 	cmp	r3, r4
   15bf4:	1a00004e 	bne	15d34 <abort+0x28c>
   15bf8:	e5856008 	str	r6, [r5, #8]
   15bfc:	e3a0c004 	mov	ip, #4
   15c00:	e5953004 	ldr	r3, [r5, #4]
   15c04:	e28d4084 	add	r4, sp, #132	; 0x84
   15c08:	e2833001 	add	r3, r3, #1
   15c0c:	e1a00004 	mov	r0, r4
   15c10:	e3a0208c 	mov	r2, #140	; 0x8c
   15c14:	e3a01000 	mov	r1, #0
   15c18:	e5853004 	str	r3, [r5, #4]
   15c1c:	e585c00c 	str	ip, [r5, #12]
   15c20:	eb00430a 	bl	26850 <memset>
   15c24:	e3e01000 	mvn	r1, #0
   15c28:	e2843084 	add	r3, r4, #132	; 0x84
   15c2c:	e2842004 	add	r2, r4, #4
   15c30:	e5231004 	str	r1, [r3, #-4]!
   15c34:	e1520003 	cmp	r2, r3
   15c38:	1afffffc 	bne	15c30 <abort+0x188>
   15c3c:	e3a03000 	mov	r3, #0
   15c40:	e1a01004 	mov	r1, r4
   15c44:	e1a02003 	mov	r2, r3
   15c48:	e3a00006 	mov	r0, #6
   15c4c:	e58d3108 	str	r3, [sp, #264]	; 0x108
   15c50:	eb0082a8 	bl	366f8 <__sigaction>
   15c54:	e595400c 	ldr	r4, [r5, #12]
   15c58:	eaffffb5 	b	15b34 <abort+0x8c>
   15c5c:	e3a03008 	mov	r3, #8
   15c60:	e3a0007f 	mov	r0, #127	; 0x7f
   15c64:	e585300c 	str	r3, [r5, #12]
   15c68:	eb004531 	bl	27134 <_exit>
   15c6c:	e1a09003 	mov	r9, r3
   15c70:	e59f80e8 	ldr	r8, [pc, #232]	; 15d60 <abort+0x2b8>
   15c74:	e5853008 	str	r3, [r5, #8]
   15c78:	e5957000 	ldr	r7, [r5]
   15c7c:	e1a01009 	mov	r1, r9
   15c80:	e1a04007 	mov	r4, r7
   15c84:	e1a02008 	mov	r2, r8
   15c88:	e5923000 	ldr	r3, [r2]
   15c8c:	e1530004 	cmp	r3, r4
   15c90:	1a000005 	bne	15cac <abort+0x204>
   15c94:	e1a00004 	mov	r0, r4
   15c98:	e3e03a0f 	mvn	r3, #61440	; 0xf000
   15c9c:	e1a0e00f 	mov	lr, pc
   15ca0:	e243f03f 	sub	pc, r3, #63	; 0x3f
   15ca4:	3afffff7 	bcc	15c88 <abort+0x1e0>
   15ca8:	e1a03004 	mov	r3, r4
   15cac:	e1570003 	cmp	r7, r3
   15cb0:	1afffff0 	bne	15c78 <abort+0x1d0>
   15cb4:	e3570001 	cmp	r7, #1
   15cb8:	daffffbb 	ble	15bac <abort+0x104>
   15cbc:	e59f009c 	ldr	r0, [pc, #156]	; 15d60 <abort+0x2b8>
   15cc0:	e3a01081 	mov	r1, #129	; 0x81
   15cc4:	e3a02001 	mov	r2, #1
   15cc8:	e3a03000 	mov	r3, #0
   15ccc:	e3a070f0 	mov	r7, #240	; 0xf0
   15cd0:	ef000000 	svc	0x00000000
   15cd4:	eaffffb4 	b	15bac <abort+0x104>
   15cd8:	e3a03002 	mov	r3, #2
   15cdc:	e3a00000 	mov	r0, #0
   15ce0:	e585300c 	str	r3, [r5, #12]
   15ce4:	eb001c3c 	bl	1cddc <_IO_flush_all_lockp>
   15ce8:	e595400c 	ldr	r4, [r5, #12]
   15cec:	eaffff8c 	b	15b24 <abort+0x7c>
   15cf0:	e3a03005 	mov	r3, #5
   15cf4:	e585300c 	str	r3, [r5, #12]
   15cf8:	eb000d81 	bl	19304 <__fcloseall>
   15cfc:	e595400c 	ldr	r4, [r5, #12]
   15d00:	eaffff8d 	b	15b3c <abort+0x94>
   15d04:	e3a03006 	mov	r3, #6
   15d08:	e1a00003 	mov	r0, r3
   15d0c:	e585300c 	str	r3, [r5, #12]
   15d10:	eb008211 	bl	3655c <raise>
   15d14:	e595400c 	ldr	r4, [r5, #12]
   15d18:	eaffff89 	b	15b44 <abort+0x9c>
   15d1c:	e3a03007 	mov	r3, #7
   15d20:	e585300c 	str	r3, [r5, #12]
   15d24:	e7f000f0 	udf	#0
   15d28:	e1a00005 	mov	r0, r5
   15d2c:	eb004f76 	bl	29b0c <__lll_lock_wait_private>
   15d30:	eaffff72 	b	15b00 <abort+0x58>
   15d34:	e1a00002 	mov	r0, r2
   15d38:	eb004f73 	bl	29b0c <__lll_lock_wait_private>
   15d3c:	eaffffad 	b	15bf8 <abort+0x150>
   15d40:	e3a03004 	mov	r3, #4
   15d44:	e28d4084 	add	r4, sp, #132	; 0x84
   15d48:	e1a00004 	mov	r0, r4
   15d4c:	e3a0208c 	mov	r2, #140	; 0x8c
   15d50:	e3a01000 	mov	r1, #0
   15d54:	e585300c 	str	r3, [r5, #12]
   15d58:	eb0042bc 	bl	26850 <memset>
   15d5c:	eaffffb0 	b	15c24 <abort+0x17c>
   15d60:	00098198 	.word	0x00098198

00015d64 <msort_with_tmp.part.0>:
   15d64:	e1a03001 	mov	r3, r1
   15d68:	e92d4ff0 	push	{r4, r5, r6, r7, r8, r9, sl, fp, lr}
   15d6c:	e5904000 	ldr	r4, [r0]
   15d70:	e1a060a2 	lsr	r6, r2, #1
   15d74:	e0233694 	mla	r3, r4, r6, r3
   15d78:	e24dd014 	sub	sp, sp, #20
   15d7c:	e3560001 	cmp	r6, #1
   15d80:	e98d0007 	stmib	sp, {r0, r1, r2}
   15d84:	e042b006 	sub	fp, r2, r6
   15d88:	e1a04003 	mov	r4, r3
   15d8c:	9a000001 	bls	15d98 <msort_with_tmp.part.0+0x34>
   15d90:	e1a02006 	mov	r2, r6
   15d94:	ebfffff2 	bl	15d64 <msort_with_tmp.part.0>
   15d98:	e35b0001 	cmp	fp, #1
   15d9c:	9a000003 	bls	15db0 <msort_with_tmp.part.0+0x4c>
   15da0:	e1a0200b 	mov	r2, fp
   15da4:	e1a01004 	mov	r1, r4
   15da8:	e59d0004 	ldr	r0, [sp, #4]
   15dac:	ebffffec 	bl	15d64 <msort_with_tmp.part.0>
   15db0:	e59d3004 	ldr	r3, [sp, #4]
   15db4:	e59d7008 	ldr	r7, [sp, #8]
   15db8:	e5932004 	ldr	r2, [r3, #4]
   15dbc:	e5935010 	ldr	r5, [r3, #16]
   15dc0:	e5938000 	ldr	r8, [r3]
   15dc4:	e5939008 	ldr	r9, [r3, #8]
   15dc8:	e593a00c 	ldr	sl, [r3, #12]
   15dcc:	e3520003 	cmp	r2, #3
   15dd0:	979ff102 	ldrls	pc, [pc, r2, lsl #2]
   15dd4:	ea000021 	b	15e60 <msort_with_tmp.part.0+0xfc>
   15dd8:	00015f74 	.word	0x00015f74
   15ddc:	00015f20 	.word	0x00015f20
   15de0:	00015dec 	.word	0x00015dec
   15de4:	00015ed8 	.word	0x00015ed8
   15de8:	e1a05000 	mov	r5, r0
   15dec:	e3560000 	cmp	r6, #0
   15df0:	135b0000 	cmpne	fp, #0
   15df4:	0a00002c 	beq	15eac <msort_with_tmp.part.0+0x148>
   15df8:	e1a0200a 	mov	r2, sl
   15dfc:	e1a01004 	mov	r1, r4
   15e00:	e1a00007 	mov	r0, r7
   15e04:	e12fff39 	blx	r9
   15e08:	e3500000 	cmp	r0, #0
   15e0c:	e0850008 	add	r0, r5, r8
   15e10:	c1a02004 	movgt	r2, r4
   15e14:	d1a02007 	movle	r2, r7
   15e18:	c24bb001 	subgt	fp, fp, #1
   15e1c:	c0844008 	addgt	r4, r4, r8
   15e20:	d2466001 	suble	r6, r6, #1
   15e24:	d0877008 	addle	r7, r7, r8
   15e28:	e1550000 	cmp	r5, r0
   15e2c:	30403008 	subcc	r3, r0, r8
   15e30:	2affffec 	bcs	15de8 <msort_with_tmp.part.0+0x84>
   15e34:	e4921004 	ldr	r1, [r2], #4
   15e38:	e4831004 	str	r1, [r3], #4
   15e3c:	e1500003 	cmp	r0, r3
   15e40:	8afffffb 	bhi	15e34 <msort_with_tmp.part.0+0xd0>
   15e44:	e1a05000 	mov	r5, r0
   15e48:	eaffffe7 	b	15dec <msort_with_tmp.part.0+0x88>
   15e4c:	e1a01007 	mov	r1, r7
   15e50:	eb0042be 	bl	26950 <memcpy>
   15e54:	e2466001 	sub	r6, r6, #1
   15e58:	e0805008 	add	r5, r0, r8
   15e5c:	e0877008 	add	r7, r7, r8
   15e60:	e3560000 	cmp	r6, #0
   15e64:	135b0000 	cmpne	fp, #0
   15e68:	0a00000f 	beq	15eac <msort_with_tmp.part.0+0x148>
   15e6c:	e1a0200a 	mov	r2, sl
   15e70:	e1a01004 	mov	r1, r4
   15e74:	e1a00007 	mov	r0, r7
   15e78:	e12fff39 	blx	r9
   15e7c:	e3500000 	cmp	r0, #0
   15e80:	e1a02008 	mov	r2, r8
   15e84:	e1a00005 	mov	r0, r5
   15e88:	daffffef 	ble	15e4c <msort_with_tmp.part.0+0xe8>
   15e8c:	e1a01004 	mov	r1, r4
   15e90:	e24bb001 	sub	fp, fp, #1
   15e94:	eb0042ad 	bl	26950 <memcpy>
   15e98:	e3560000 	cmp	r6, #0
   15e9c:	135b0000 	cmpne	fp, #0
   15ea0:	e0805008 	add	r5, r0, r8
   15ea4:	e0844008 	add	r4, r4, r8
   15ea8:	1affffef 	bne	15e6c <msort_with_tmp.part.0+0x108>
   15eac:	e3560000 	cmp	r6, #0
   15eb0:	1a000041 	bne	15fbc <msort_with_tmp.part.0+0x258>
   15eb4:	e59d300c 	ldr	r3, [sp, #12]
   15eb8:	e59d0008 	ldr	r0, [sp, #8]
   15ebc:	e043200b 	sub	r2, r3, fp
   15ec0:	e0020298 	mul	r2, r8, r2
   15ec4:	e59d3004 	ldr	r3, [sp, #4]
   15ec8:	e5931010 	ldr	r1, [r3, #16]
   15ecc:	e28dd014 	add	sp, sp, #20
   15ed0:	e8bd4ff0 	pop	{r4, r5, r6, r7, r8, r9, sl, fp, lr}
   15ed4:	ea00429d 	b	26950 <memcpy>
   15ed8:	e35b0000 	cmp	fp, #0
   15edc:	13560000 	cmpne	r6, #0
   15ee0:	0afffff1 	beq	15eac <msort_with_tmp.part.0+0x148>
   15ee4:	e5941000 	ldr	r1, [r4]
   15ee8:	e5970000 	ldr	r0, [r7]
   15eec:	e1a0200a 	mov	r2, sl
   15ef0:	e12fff39 	blx	r9
   15ef4:	e3500000 	cmp	r0, #0
